
stdio.elf:     file format elf32-littlearm


Disassembly of section .text:

33f80000 <_start>:
33f80000:	eb00000c 	bl	33f80038 <pre_lowlevel_init>
33f80004:	eb000015 	bl	33f80060 <system_clock_init>
33f80008:	eb000025 	bl	33f800a4 <mem_ctrl_asm_init>
33f8000c:	eb00001e 	bl	33f8008c <nand_asm_init>

33f80010 <relocate>:
33f80010:	e24f0018 	sub	r0, pc, #24
33f80014:	e59f10e8 	ldr	r1, [pc, #232]	; 33f80104 <mem_cfg_val+0x34>
33f80018:	e1500001 	cmp	r0, r1
33f8001c:	0a000001 	beq	33f80028 <stack_setup>
33f80020:	e3a0da01 	mov	sp, #4096	; 0x1000
33f80024:	eb0000f5 	bl	33f80400 <copy_to_ram_from_nand>

33f80028 <stack_setup>:
33f80028:	e59fd0d4 	ldr	sp, [pc, #212]	; 33f80104 <mem_cfg_val+0x34>
33f8002c:	e51ff004 	ldr	pc, [pc, #-4]	; 33f80030 <_start_armboot>

33f80030 <_start_armboot>:
33f80030:	33f802d8 	mvnscc	r0, #-2147483635	; 0x8000000d

33f80034 <halt_loop>:
33f80034:	eafffffe 	b	33f80034 <halt_loop>

33f80038 <pre_lowlevel_init>:
33f80038:	e3a00453 	mov	r0, #1392508928	; 0x53000000
33f8003c:	e3a01000 	mov	r1, #0
33f80040:	e5801000 	str	r1, [r0]
33f80044:	e3e01000 	mvn	r1, #0
33f80048:	e59f00b8 	ldr	r0, [pc, #184]	; 33f80108 <mem_cfg_val+0x38>
33f8004c:	e5801000 	str	r1, [r0]
33f80050:	e59f10b4 	ldr	r1, [pc, #180]	; 33f8010c <mem_cfg_val+0x3c>
33f80054:	e59f00b4 	ldr	r0, [pc, #180]	; 33f80110 <mem_cfg_val+0x40>
33f80058:	e5801000 	str	r1, [r0]
33f8005c:	e1a0f00e 	mov	pc, lr

33f80060 <system_clock_init>:
33f80060:	e59f00ac 	ldr	r0, [pc, #172]	; 33f80114 <mem_cfg_val+0x44>
33f80064:	e3a01005 	mov	r1, #5
33f80068:	e5801000 	str	r1, [r0]
33f8006c:	ee111f10 	mrc	15, 0, r1, cr1, cr0, {0}
33f80070:	e3811103 	orr	r1, r1, #-1073741824	; 0xc0000000
33f80074:	ee011f10 	mcr	15, 0, r1, cr1, cr0, {0}
33f80078:	e3a01313 	mov	r1, #1275068416	; 0x4c000000
33f8007c:	e3a02a7f 	mov	r2, #520192	; 0x7f000
33f80080:	e2822021 	add	r2, r2, #33	; 0x21
33f80084:	e5812004 	str	r2, [r1, #4]
33f80088:	e1a0f00e 	mov	pc, lr

33f8008c <nand_asm_init>:
33f8008c:	e3a0044e 	mov	r0, #1308622848	; 0x4e000000
33f80090:	e59f1080 	ldr	r1, [pc, #128]	; 33f80118 <mem_cfg_val+0x48>
33f80094:	e5801000 	str	r1, [r0]
33f80098:	e3a01003 	mov	r1, #3
33f8009c:	e5801004 	str	r1, [r0, #4]
33f800a0:	e1a0f00e 	mov	pc, lr

33f800a4 <mem_ctrl_asm_init>:
33f800a4:	e3a01312 	mov	r1, #1207959552	; 0x48000000
33f800a8:	e28f2020 	add	r2, pc, #32
33f800ac:	e1a00000 	nop			; (mov r0, r0)
33f800b0:	e2813034 	add	r3, r1, #52	; 0x34
33f800b4:	e4924004 	ldr	r4, [r2], #4
33f800b8:	e4814004 	str	r4, [r1], #4
33f800bc:	e1510003 	cmp	r1, r3
33f800c0:	1afffffb 	bne	33f800b4 <mem_ctrl_asm_init+0x10>
33f800c4:	e1a0f00e 	mov	pc, lr
33f800c8:	e320f000 	nop	{0}
33f800cc:	e320f000 	nop	{0}

33f800d0 <mem_cfg_val>:
33f800d0:	22011110 	andcs	r1, r1, #4
33f800d4:	00000700 	andeq	r0, r0, r0, lsl #14
33f800d8:	00000700 	andeq	r0, r0, r0, lsl #14
33f800dc:	00000700 	andeq	r0, r0, r0, lsl #14
33f800e0:	00000700 	andeq	r0, r0, r0, lsl #14
33f800e4:	00000700 	andeq	r0, r0, r0, lsl #14
33f800e8:	00000700 	andeq	r0, r0, r0, lsl #14
33f800ec:	00018005 	andeq	r8, r1, r5
33f800f0:	00018005 	andeq	r8, r1, r5
33f800f4:	008c07a3 	addeq	r0, ip, r3, lsr #15
33f800f8:	000000b1 	strheq	r0, [r0], -r1
33f800fc:	00000030 	andeq	r0, r0, r0, lsr r0
33f80100:	00000030 	andeq	r0, r0, r0, lsr r0
33f80104:	33f80000 	mvnscc	r0, #0
33f80108:	4a000008 	bmi	33f80130 <mem_cfg_val+0x60>
33f8010c:	00007fff 	strdeq	r7, [r0], -pc
33f80110:	4a00001c 	bmi	33f80188 <mem_cfg_val+0xb8>
33f80114:	4c000014 	stcmi	0, cr0, [r0], {20}
33f80118:	00001210 	andeq	r1, r0, r0, lsl r2
33f8011c:	e320f000 	nop	{0}
33f80120:	00002541 	andeq	r2, r0, r1, asr #10
33f80124:	61656100 	cmnvs	r5, r0, lsl #2
33f80128:	01006962 	tsteq	r0, r2, ror #18
33f8012c:	0000001b 	andeq	r0, r0, fp, lsl r0
33f80130:	4d524105 	ldfmie	f4, [r2, #-20]	; 0xffffffec
33f80134:	36373131 	undefined instruction 0x36373131
33f80138:	2d465a4a 	vstrcs	s11, [r6, #-296]	; 0xfffffed8
33f8013c:	09060053 	stmdbeq	r6, {r0, r1, r4, r6}
33f80140:	01090108 	tsteq	r9, r8, lsl #2
33f80144:	006a020a 	rsbeq	r0, sl, sl, lsl #4
33f80148:	00020000 	andeq	r0, r2, r0
33f8014c:	0000001e 	andeq	r0, r0, lr, lsl r0
33f80150:	0efb0102 	cdpeq	1, 15, cr0, cr11, cr2, {0}
33f80154:	0101000d 	tsteq	r1, sp
33f80158:	00000101 	andeq	r0, r0, r1, lsl #2
33f8015c:	00000100 	andeq	r0, r0, r0, lsl #2
33f80160:	74730001 	ldrbtvc	r0, [r3], #-1
33f80164:	2e747261 	cdpcs	2, 7, cr7, cr4, cr1, {3}
33f80168:	00000053 	andeq	r0, r0, r3, asr r0
33f8016c:	05000000 	streq	r0, [r0]
33f80170:	f8000002 	undefined instruction 0xf8000002
33f80174:	010c0333 	tsteq	ip, r3, lsr r3
33f80178:	312f2f2f 	teqcc	pc, pc, lsr #30
33f8017c:	302f2f2f 	eorcc	r2, pc, pc, lsr #30
33f80180:	0330312f 	teqeq	r0, #-1073741813	; 0xc000000b
33f80184:	0d034a09 	vstreq	s8, [r3, #-36]	; 0xffffffdc
33f80188:	332f2f2e 	teqcc	pc, #184	; 0xb8
33f8018c:	2f302f2f 	svccs	0x00302f2f
33f80190:	1003302f 	andne	r3, r3, pc, lsr #32
33f80194:	362f2f2e 	strtcc	r2, [pc], -lr, lsr #30
33f80198:	2f302f2f 	svccs	0x00302f2f
33f8019c:	03302f2f 	teqeq	r0, #188	; 0xbc
33f801a0:	2f2f2e0c 	svccs	0x002f2e0c
33f801a4:	34302f30 	ldrtcc	r2, [r0], #-3888	; 0xf30
33f801a8:	2f304b2f 	svccs	0x00304b2f
33f801ac:	022f2f2f 	eoreq	r2, pc, #188	; 0xbc
33f801b0:	0101002c 	tsteq	r1, ip, lsr #32
33f801b4:	0000005e 	andeq	r0, r0, lr, asr r0
33f801b8:	02160002 	andseq	r0, r6, #2
33f801bc:	010433f8 	strdeq	r3, [r4, -r8]
33f801c0:	33f80146 	mvnscc	r0, #-2147483631	; 0x80000011
33f801c4:	33f80000 	mvnscc	r0, #0
33f801c8:	33f8011c 	mvnscc	r0, #7
33f801cc:	72617473 	rsbvc	r7, r1, #1929379840	; 0x73000000
33f801d0:	00532e74 	subseq	r2, r3, r4, ror lr
33f801d4:	726f772f 	rsbvc	r7, pc, #12320768	; 0xbc0000
33f801d8:	63652f6b 	cmnvs	r5, #428	; 0x1ac
33f801dc:	7370696c 	cmnvc	r0, #1769472	; 0x1b0000
33f801e0:	72705f65 	rsbsvc	r5, r0, #404	; 0x194
33f801e4:	63656a6f 	cmnvs	r5, #454656	; 0x6f000
33f801e8:	6c2f7374 	stcvs	3, cr7, [pc], #-464	; 0xfffffe30
33f801ec:	69656675 	stmdbvs	r5!, {r0, r2, r4, r5, r6, r9, sl, sp, lr}^
33f801f0:	68746f2f 	ldmdavs	r4!, {r0, r1, r2, r3, r5, r8, r9, sl, fp, sp, lr}^
33f801f4:	312f7265 	teqcc	pc, r5, ror #4
33f801f8:	74732e37 	ldrbtvc	r2, [r3], #-3639	; 0xe37
33f801fc:	2f6f6964 	svccs	0x006f6964
33f80200:	75626564 	strbvc	r6, [r2, #-1380]!	; 0x564
33f80204:	4e470067 	cdpmi	0, 4, cr0, cr7, cr7, {3}
33f80208:	53412055 	movtpl	r2, #4181	; 0x1055
33f8020c:	322e3220 	eorcc	r3, lr, #2
33f80210:	00312e30 	eorseq	r2, r1, r0, lsr lr
33f80214:	11018001 	tstne	r1, r1
33f80218:	11061000 	tstne	r6, r0
33f8021c:	03011201 	movweq	r1, #4609	; 0x1201
33f80220:	25081b08 	strcs	r1, [r8, #-2824]	; 0xb08
33f80224:	00051308 	andeq	r1, r5, r8, lsl #6
	...
33f80230:	0000001c 	andeq	r0, r0, ip, lsl r0
33f80234:	01b40002 	undefined instruction 0x01b40002
33f80238:	000433f8 	strdeq	r3, [r4], -r8
33f8023c:	00000000 	andeq	r0, r0, r0
33f80240:	33f80000 	mvnscc	r0, #0
33f80244:	0000011c 	andeq	r0, r0, ip, lsl r1
	...

33f80250 <putchar>:
33f80250:	e350000a 	cmp	r0, #10
33f80254:	e92d4010 	push	{r4, lr}
33f80258:	e1a04000 	mov	r4, r0
33f8025c:	0a00000c 	beq	33f80294 <putchar+0x44>
33f80260:	e3500008 	cmp	r0, #8
33f80264:	0a000003 	beq	33f80278 <putchar+0x28>
33f80268:	e6ef0074 	uxtb	r0, r4
33f8026c:	eb000055 	bl	33f803c8 <putc>
33f80270:	e1a00004 	mov	r0, r4
33f80274:	e8bd8010 	pop	{r4, pc}
33f80278:	eb000052 	bl	33f803c8 <putc>
33f8027c:	e3a00020 	mov	r0, #32
33f80280:	eb000050 	bl	33f803c8 <putc>
33f80284:	e6ef0074 	uxtb	r0, r4
33f80288:	eb00004e 	bl	33f803c8 <putc>
33f8028c:	e1a00004 	mov	r0, r4
33f80290:	e8bd8010 	pop	{r4, pc}
33f80294:	e3a0000d 	mov	r0, #13
33f80298:	eb00004a 	bl	33f803c8 <putc>
33f8029c:	e6ef0074 	uxtb	r0, r4
33f802a0:	eb000048 	bl	33f803c8 <putc>
33f802a4:	e1a00004 	mov	r0, r4
33f802a8:	e8bd8010 	pop	{r4, pc}

33f802ac <puts>:
33f802ac:	e92d4010 	push	{r4, lr}
33f802b0:	e1a04000 	mov	r4, r0
33f802b4:	e5d00000 	ldrb	r0, [r0]
33f802b8:	e3500000 	cmp	r0, #0
33f802bc:	0a000003 	beq	33f802d0 <puts+0x24>
33f802c0:	ebffffe2 	bl	33f80250 <putchar>
33f802c4:	e5f40001 	ldrb	r0, [r4, #1]!
33f802c8:	e3500000 	cmp	r0, #0
33f802cc:	1afffffb 	bne	33f802c0 <puts+0x14>
33f802d0:	e3a00000 	mov	r0, #0
33f802d4:	e8bd8010 	pop	{r4, pc}

33f802d8 <main>:
33f802d8:	e92d4008 	push	{r3, lr}
33f802dc:	eb000028 	bl	33f80384 <uart_init>
33f802e0:	e59f0020 	ldr	r0, [pc, #32]	; 33f80308 <main+0x30>
33f802e4:	ebfffff0 	bl	33f802ac <puts>
33f802e8:	e59f001c 	ldr	r0, [pc, #28]	; 33f8030c <main+0x34>
33f802ec:	eb0000a6 	bl	33f8058c <printf>
33f802f0:	e3a03456 	mov	r3, #1442840576	; 0x56000000
33f802f4:	e3a02b01 	mov	r2, #1024	; 0x400
33f802f8:	e5832010 	str	r2, [r3, #16]
33f802fc:	e2422b01 	sub	r2, r2, #1024	; 0x400
33f80300:	e5832014 	str	r2, [r3, #20]
33f80304:	eafffffe 	b	33f80304 <main+0x2c>
33f80308:	33f82d28 	mvnscc	r2, #2560	; 0xa00
33f8030c:	33f82d30 	mvnscc	r2, #3072	; 0xc00

33f80310 <main1>:
33f80310:	e92d4030 	push	{r4, r5, lr}
33f80314:	e3a03000 	mov	r3, #0
33f80318:	e24dd00c 	sub	sp, sp, #12
33f8031c:	e58d3004 	str	r3, [sp, #4]
33f80320:	e58d3000 	str	r3, [sp]
33f80324:	eb000016 	bl	33f80384 <uart_init>
33f80328:	e59f003c 	ldr	r0, [pc, #60]	; 33f8036c <main1+0x5c>
33f8032c:	e59f103c 	ldr	r1, [pc, #60]	; 33f80370 <main1+0x60>
33f80330:	eb000095 	bl	33f8058c <printf>
33f80334:	e28d5004 	add	r5, sp, #4
33f80338:	e59f0034 	ldr	r0, [pc, #52]	; 33f80374 <main1+0x64>
33f8033c:	eb000092 	bl	33f8058c <printf>
33f80340:	e1a01005 	mov	r1, r5
33f80344:	e1a0200d 	mov	r2, sp
33f80348:	e59f0028 	ldr	r0, [pc, #40]	; 33f80378 <main1+0x68>
33f8034c:	eb0000a4 	bl	33f805e4 <scanf>
33f80350:	e59f0024 	ldr	r0, [pc, #36]	; 33f8037c <main1+0x6c>
33f80354:	eb00008c 	bl	33f8058c <printf>
33f80358:	e89d000a 	ldm	sp, {r1, r3}
33f8035c:	e59f001c 	ldr	r0, [pc, #28]	; 33f80380 <main1+0x70>
33f80360:	e0811003 	add	r1, r1, r3
33f80364:	eb000088 	bl	33f8058c <printf>
33f80368:	eafffff2 	b	33f80338 <main1+0x28>
33f8036c:	33f82d3c 	mvnscc	r2, #3840	; 0xf00
33f80370:	33f82d44 	mvnscc	r2, #4352	; 0x1100
33f80374:	33f82d50 	mvnscc	r2, #5120	; 0x1400
33f80378:	33f82d6c 	mvnscc	r2, #6912	; 0x1b00
33f8037c:	33f82d74 	mvnscc	r2, #7424	; 0x1d00
33f80380:	33f82d78 	mvnscc	r2, #7680	; 0x1e00

33f80384 <uart_init>:
33f80384:	e3a02456 	mov	r2, #1442840576	; 0x56000000
33f80388:	e5920070 	ldr	r0, [r2, #112]	; 0x70
33f8038c:	e3a03205 	mov	r3, #1342177280	; 0x50000000
33f80390:	e38000a0 	orr	r0, r0, #160	; 0xa0
33f80394:	e5820070 	str	r0, [r2, #112]	; 0x70
33f80398:	e3a0000c 	mov	r0, #12
33f8039c:	e5820078 	str	r0, [r2, #120]	; 0x78
33f803a0:	e3a02003 	mov	r2, #3
33f803a4:	e5832000 	str	r2, [r3]
33f803a8:	e3a02005 	mov	r2, #5
33f803ac:	e5832004 	str	r2, [r3, #4]
33f803b0:	e3a01000 	mov	r1, #0
33f803b4:	e3a0201a 	mov	r2, #26
33f803b8:	e5831008 	str	r1, [r3, #8]
33f803bc:	e583100c 	str	r1, [r3, #12]
33f803c0:	e5832028 	str	r2, [r3, #40]	; 0x28
33f803c4:	e12fff1e 	bx	lr

33f803c8 <putc>:
33f803c8:	e3a02205 	mov	r2, #1342177280	; 0x50000000
33f803cc:	e5923010 	ldr	r3, [r2, #16]
33f803d0:	e3130004 	tst	r3, #4
33f803d4:	0afffffc 	beq	33f803cc <putc+0x4>
33f803d8:	e3a03205 	mov	r3, #1342177280	; 0x50000000
33f803dc:	e5c30020 	strb	r0, [r3, #32]
33f803e0:	e12fff1e 	bx	lr

33f803e4 <getc>:
33f803e4:	e3a02205 	mov	r2, #1342177280	; 0x50000000
33f803e8:	e5923010 	ldr	r3, [r2, #16]
33f803ec:	e3130001 	tst	r3, #1
33f803f0:	0afffffc 	beq	33f803e8 <getc+0x4>
33f803f4:	e3a03205 	mov	r3, #1342177280	; 0x50000000
33f803f8:	e5d30024 	ldrb	r0, [r3, #36]	; 0x24
33f803fc:	e12fff1e 	bx	lr

33f80400 <copy_to_ram_from_nand>:
33f80400:	e3a0344e 	mov	r3, #1308622848	; 0x4e000000
33f80404:	e5932004 	ldr	r2, [r3, #4]
33f80408:	e92d07f0 	push	{r4, r5, r6, r7, r8, r9, sl}
33f8040c:	e3c22002 	bic	r2, r2, #2
33f80410:	e5832004 	str	r2, [r3, #4]
33f80414:	e3a02090 	mov	r2, #144	; 0x90
33f80418:	e5832008 	str	r2, [r3, #8]
33f8041c:	e3a02000 	mov	r2, #0
33f80420:	e583200c 	str	r2, [r3, #12]
33f80424:	e5d32010 	ldrb	r2, [r3, #16]
33f80428:	e24dd00c 	sub	sp, sp, #12
33f8042c:	e5cd2007 	strb	r2, [sp, #7]
33f80430:	e5d32010 	ldrb	r2, [r3, #16]
33f80434:	e1a01003 	mov	r1, r3
33f80438:	e5cd2007 	strb	r2, [sp, #7]
33f8043c:	e5932004 	ldr	r2, [r3, #4]
33f80440:	e3c22002 	bic	r2, r2, #2
33f80444:	e5832004 	str	r2, [r3, #4]
33f80448:	e5932020 	ldr	r2, [r3, #32]
33f8044c:	e3822004 	orr	r2, r2, #4
33f80450:	e5832020 	str	r2, [r3, #32]
33f80454:	e3a020ff 	mov	r2, #255	; 0xff
33f80458:	e5832008 	str	r2, [r3, #8]
33f8045c:	e5913020 	ldr	r3, [r1, #32]
33f80460:	e3a0244e 	mov	r2, #1308622848	; 0x4e000000
33f80464:	e3130004 	tst	r3, #4
33f80468:	0afffffb 	beq	33f8045c <copy_to_ram_from_nand+0x5c>
33f8046c:	e5921004 	ldr	r1, [r2, #4]
33f80470:	e3a03000 	mov	r3, #0
33f80474:	e3811002 	orr	r1, r1, #2
33f80478:	e5821004 	str	r1, [r2, #4]
33f8047c:	e5dd1007 	ldrb	r1, [sp, #7]
33f80480:	e59f0100 	ldr	r0, [pc, #256]	; 33f80588 <copy_to_ram_from_nand+0x188>
33f80484:	e3510080 	cmp	r1, #128	; 0x80
33f80488:	93a05000 	movls	r5, #0
33f8048c:	83a05001 	movhi	r5, #1
33f80490:	83a0ab02 	movhi	sl, #2048	; 0x800
33f80494:	93a0ac02 	movls	sl, #512	; 0x200
33f80498:	83a08002 	movhi	r8, #2
33f8049c:	93a08008 	movls	r8, #8
33f804a0:	e3550000 	cmp	r5, #0
33f804a4:	e1a04003 	mov	r4, r3
33f804a8:	e1a06003 	mov	r6, r3
33f804ac:	e3a09030 	mov	r9, #48	; 0x30
33f804b0:	e1a07002 	mov	r7, r2
33f804b4:	1a00001f 	bne	33f80538 <copy_to_ram_from_nand+0x138>
33f804b8:	e5921004 	ldr	r1, [r2, #4]
33f804bc:	e20330ff 	and	r3, r3, #255	; 0xff
33f804c0:	e3c11002 	bic	r1, r1, #2
33f804c4:	e5821004 	str	r1, [r2, #4]
33f804c8:	e5921020 	ldr	r1, [r2, #32]
33f804cc:	e3a0cc02 	mov	ip, #512	; 0x200
33f804d0:	e3811004 	orr	r1, r1, #4
33f804d4:	e5821020 	str	r1, [r2, #32]
33f804d8:	e5825008 	str	r5, [r2, #8]
33f804dc:	e582500c 	str	r5, [r2, #12]
33f804e0:	e582300c 	str	r3, [r2, #12]
33f804e4:	e582500c 	str	r5, [r2, #12]
33f804e8:	e582500c 	str	r5, [r2, #12]
33f804ec:	e5923020 	ldr	r3, [r2, #32]
33f804f0:	e3130004 	tst	r3, #4
33f804f4:	0afffffc 	beq	33f804ec <copy_to_ram_from_nand+0xec>
33f804f8:	e3a03000 	mov	r3, #0
33f804fc:	e5d21010 	ldrb	r1, [r2, #16]
33f80500:	e7c01003 	strb	r1, [r0, r3]
33f80504:	e2833001 	add	r3, r3, #1
33f80508:	e153000c 	cmp	r3, ip
33f8050c:	bafffffa 	blt	33f804fc <copy_to_ram_from_nand+0xfc>
33f80510:	e5973004 	ldr	r3, [r7, #4]
33f80514:	e2844001 	add	r4, r4, #1
33f80518:	e3833002 	orr	r3, r3, #2
33f8051c:	e1540008 	cmp	r4, r8
33f80520:	e5873004 	str	r3, [r7, #4]
33f80524:	e1a03004 	mov	r3, r4
33f80528:	2a000012 	bcs	33f80578 <copy_to_ram_from_nand+0x178>
33f8052c:	e3550000 	cmp	r5, #0
33f80530:	e080000a 	add	r0, r0, sl
33f80534:	0affffdf 	beq	33f804b8 <copy_to_ram_from_nand+0xb8>
33f80538:	e5921004 	ldr	r1, [r2, #4]
33f8053c:	e20330ff 	and	r3, r3, #255	; 0xff
33f80540:	e3c11002 	bic	r1, r1, #2
33f80544:	e5821004 	str	r1, [r2, #4]
33f80548:	e5921020 	ldr	r1, [r2, #32]
33f8054c:	e3a0cb02 	mov	ip, #2048	; 0x800
33f80550:	e3811004 	orr	r1, r1, #4
33f80554:	e5821020 	str	r1, [r2, #32]
33f80558:	e5826008 	str	r6, [r2, #8]
33f8055c:	e582600c 	str	r6, [r2, #12]
33f80560:	e582600c 	str	r6, [r2, #12]
33f80564:	e582300c 	str	r3, [r2, #12]
33f80568:	e582600c 	str	r6, [r2, #12]
33f8056c:	e582600c 	str	r6, [r2, #12]
33f80570:	e5829008 	str	r9, [r2, #8]
33f80574:	eaffffdc 	b	33f804ec <copy_to_ram_from_nand+0xec>
33f80578:	e3a00000 	mov	r0, #0
33f8057c:	e28dd00c 	add	sp, sp, #12
33f80580:	e8bd07f0 	pop	{r4, r5, r6, r7, r8, r9, sl}
33f80584:	e12fff1e 	bx	lr
33f80588:	33f80000 	mvnscc	r0, #0

33f8058c <printf>:
33f8058c:	e92d000f 	push	{r0, r1, r2, r3}
33f80590:	e92d4070 	push	{r4, r5, r6, lr}
33f80594:	e59f0044 	ldr	r0, [pc, #68]	; 33f805e0 <printf+0x54>
33f80598:	e59d1010 	ldr	r1, [sp, #16]
33f8059c:	e28d2014 	add	r2, sp, #20
33f805a0:	eb000564 	bl	33f81b38 <vsprintf>
33f805a4:	e3a04000 	mov	r4, #0
33f805a8:	e1a06000 	mov	r6, r0
33f805ac:	e59f502c 	ldr	r5, [pc, #44]	; 33f805e0 <printf+0x54>
33f805b0:	ea000002 	b	33f805c0 <printf+0x34>
33f805b4:	e7d50004 	ldrb	r0, [r5, r4]
33f805b8:	ebffff82 	bl	33f803c8 <putc>
33f805bc:	e2844001 	add	r4, r4, #1
33f805c0:	e59f0018 	ldr	r0, [pc, #24]	; 33f805e0 <printf+0x54>
33f805c4:	eb0000d0 	bl	33f8090c <strlen>
33f805c8:	e1500004 	cmp	r0, r4
33f805cc:	8afffff8 	bhi	33f805b4 <printf+0x28>
33f805d0:	e1a00006 	mov	r0, r6
33f805d4:	e8bd4070 	pop	{r4, r5, r6, lr}
33f805d8:	e28dd010 	add	sp, sp, #16
33f805dc:	e12fff1e 	bx	lr
33f805e0:	33f823d0 	mvnscc	r2, #1073741827	; 0x40000003

33f805e4 <scanf>:
33f805e4:	e92d000f 	push	{r0, r1, r2, r3}
33f805e8:	e92d4070 	push	{r4, r5, r6, lr}
33f805ec:	e59f6050 	ldr	r6, [pc, #80]	; 33f80644 <scanf+0x60>
33f805f0:	e3a05000 	mov	r5, #0
33f805f4:	ea000001 	b	33f80600 <scanf+0x1c>
33f805f8:	e7c64005 	strb	r4, [r6, r5]
33f805fc:	e2855001 	add	r5, r5, #1
33f80600:	ebffff77 	bl	33f803e4 <getc>
33f80604:	e1a04000 	mov	r4, r0
33f80608:	ebffff6e 	bl	33f803c8 <putc>
33f8060c:	e354000d 	cmp	r4, #13
33f80610:	1354000a 	cmpne	r4, #10
33f80614:	1afffff7 	bne	33f805f8 <scanf+0x14>
33f80618:	e59f0028 	ldr	r0, [pc, #40]	; 33f80648 <scanf+0x64>
33f8061c:	e3a0c000 	mov	ip, #0
33f80620:	e0803005 	add	r3, r0, r5
33f80624:	e59d1010 	ldr	r1, [sp, #16]
33f80628:	e28d2014 	add	r2, sp, #20
33f8062c:	e5c3c400 	strb	ip, [r3, #1024]	; 0x400
33f80630:	e2800b01 	add	r0, r0, #1024	; 0x400
33f80634:	eb00054c 	bl	33f81b6c <vsscanf>
33f80638:	e8bd4070 	pop	{r4, r5, r6, lr}
33f8063c:	e28dd010 	add	sp, sp, #16
33f80640:	e12fff1e 	bx	lr
33f80644:	33f827d0 	mvnscc	r2, #54525952	; 0x3400000
33f80648:	33f823d0 	mvnscc	r2, #1073741827	; 0x40000003

33f8064c <strnicmp>:
33f8064c:	e3520000 	cmp	r2, #0
33f80650:	e92d00f0 	push	{r4, r5, r6, r7}
33f80654:	01a00002 	moveq	r0, r2
33f80658:	0a000017 	beq	33f806bc <strnicmp+0x70>
33f8065c:	e59f5070 	ldr	r5, [pc, #112]	; 33f806d4 <strnicmp+0x88>
33f80660:	e3a04000 	mov	r4, #0
33f80664:	e7d03004 	ldrb	r3, [r0, r4]
33f80668:	e7d1c004 	ldrb	ip, [r1, r4]
33f8066c:	e3530000 	cmp	r3, #0
33f80670:	e2844001 	add	r4, r4, #1
33f80674:	0a000012 	beq	33f806c4 <strnicmp+0x78>
33f80678:	e35c0000 	cmp	ip, #0
33f8067c:	0a000012 	beq	33f806cc <strnicmp+0x80>
33f80680:	e153000c 	cmp	r3, ip
33f80684:	0a000009 	beq	33f806b0 <strnicmp+0x64>
33f80688:	e7d56003 	ldrb	r6, [r5, r3]
33f8068c:	e2837020 	add	r7, r3, #32
33f80690:	e3160001 	tst	r6, #1
33f80694:	e7d5600c 	ldrb	r6, [r5, ip]
33f80698:	16ef3077 	uxtbne	r3, r7
33f8069c:	e3160001 	tst	r6, #1
33f806a0:	e28c7020 	add	r7, ip, #32
33f806a4:	16efc077 	uxtbne	ip, r7
33f806a8:	e153000c 	cmp	r3, ip
33f806ac:	1a000001 	bne	33f806b8 <strnicmp+0x6c>
33f806b0:	e1520004 	cmp	r2, r4
33f806b4:	1affffea 	bne	33f80664 <strnicmp+0x18>
33f806b8:	e06c0003 	rsb	r0, ip, r3
33f806bc:	e8bd00f0 	pop	{r4, r5, r6, r7}
33f806c0:	e12fff1e 	bx	lr
33f806c4:	e26c0000 	rsb	r0, ip, #0
33f806c8:	eafffffb 	b	33f806bc <strnicmp+0x70>
33f806cc:	e1a00003 	mov	r0, r3
33f806d0:	eafffff9 	b	33f806bc <strnicmp+0x70>
33f806d4:	33f82bd8 	mvnscc	r2, #221184	; 0x36000

33f806d8 <strcpy>:
33f806d8:	e3a03000 	mov	r3, #0
33f806dc:	e7d12003 	ldrb	r2, [r1, r3]
33f806e0:	e3520000 	cmp	r2, #0
33f806e4:	e7c02003 	strb	r2, [r0, r3]
33f806e8:	e2833001 	add	r3, r3, #1
33f806ec:	1afffffa 	bne	33f806dc <strcpy+0x4>
33f806f0:	e12fff1e 	bx	lr

33f806f4 <strncpy>:
33f806f4:	e3a03000 	mov	r3, #0
33f806f8:	e3520000 	cmp	r2, #0
33f806fc:	012fff1e 	bxeq	lr
33f80700:	e7d1c003 	ldrb	ip, [r1, r3]
33f80704:	e2422001 	sub	r2, r2, #1
33f80708:	e35c0000 	cmp	ip, #0
33f8070c:	e7c0c003 	strb	ip, [r0, r3]
33f80710:	e2833001 	add	r3, r3, #1
33f80714:	1afffff7 	bne	33f806f8 <strncpy+0x4>
33f80718:	e12fff1e 	bx	lr

33f8071c <strcat>:
33f8071c:	e5d03000 	ldrb	r3, [r0]
33f80720:	e3530000 	cmp	r3, #0
33f80724:	01a0c000 	moveq	ip, r0
33f80728:	0a000004 	beq	33f80740 <strcat+0x24>
33f8072c:	e2803001 	add	r3, r0, #1
33f80730:	e1a0c003 	mov	ip, r3
33f80734:	e4d32001 	ldrb	r2, [r3], #1
33f80738:	e3520000 	cmp	r2, #0
33f8073c:	1afffffb 	bne	33f80730 <strcat+0x14>
33f80740:	e3a03000 	mov	r3, #0
33f80744:	e7d12003 	ldrb	r2, [r1, r3]
33f80748:	e3520000 	cmp	r2, #0
33f8074c:	e7cc2003 	strb	r2, [ip, r3]
33f80750:	e2833001 	add	r3, r3, #1
33f80754:	1afffffa 	bne	33f80744 <strcat+0x28>
33f80758:	e12fff1e 	bx	lr

33f8075c <strncat>:
33f8075c:	e3520000 	cmp	r2, #0
33f80760:	e52d4004 	push	{r4}		; (str r4, [sp, #-4]!)
33f80764:	0a000012 	beq	33f807b4 <strncat+0x58>
33f80768:	e5d03000 	ldrb	r3, [r0]
33f8076c:	e3530000 	cmp	r3, #0
33f80770:	01a04000 	moveq	r4, r0
33f80774:	0a000004 	beq	33f8078c <strncat+0x30>
33f80778:	e2803001 	add	r3, r0, #1
33f8077c:	e1a04003 	mov	r4, r3
33f80780:	e4d3c001 	ldrb	ip, [r3], #1
33f80784:	e35c0000 	cmp	ip, #0
33f80788:	1afffffb 	bne	33f8077c <strncat+0x20>
33f8078c:	e3a03000 	mov	r3, #0
33f80790:	e7d1c003 	ldrb	ip, [r1, r3]
33f80794:	e2833001 	add	r3, r3, #1
33f80798:	e35c0000 	cmp	ip, #0
33f8079c:	e4c4c001 	strb	ip, [r4], #1
33f807a0:	0a000003 	beq	33f807b4 <strncat+0x58>
33f807a4:	e1520003 	cmp	r2, r3
33f807a8:	1afffff8 	bne	33f80790 <strncat+0x34>
33f807ac:	e3a03000 	mov	r3, #0
33f807b0:	e5c43000 	strb	r3, [r4]
33f807b4:	e8bd0010 	pop	{r4}
33f807b8:	e12fff1e 	bx	lr

33f807bc <strcmp>:
33f807bc:	e3a03000 	mov	r3, #0
33f807c0:	ea000001 	b	33f807cc <strcmp+0x10>
33f807c4:	e3520000 	cmp	r2, #0
33f807c8:	0a000008 	beq	33f807f0 <strcmp+0x34>
33f807cc:	e7d02003 	ldrb	r2, [r0, r3]
33f807d0:	e7d1c003 	ldrb	ip, [r1, r3]
33f807d4:	e2833001 	add	r3, r3, #1
33f807d8:	e06cc002 	rsb	ip, ip, r2
33f807dc:	e6efc07c 	uxtb	ip, ip
33f807e0:	e35c0000 	cmp	ip, #0
33f807e4:	0afffff6 	beq	33f807c4 <strcmp+0x8>
33f807e8:	e6af007c 	sxtb	r0, ip
33f807ec:	e12fff1e 	bx	lr
33f807f0:	e1a00002 	mov	r0, r2
33f807f4:	e12fff1e 	bx	lr

33f807f8 <strncmp>:
33f807f8:	e3520000 	cmp	r2, #0
33f807fc:	0a000013 	beq	33f80850 <strncmp+0x58>
33f80800:	e5d03000 	ldrb	r3, [r0]
33f80804:	e5d1c000 	ldrb	ip, [r1]
33f80808:	e06cc003 	rsb	ip, ip, r3
33f8080c:	e6efc07c 	uxtb	ip, ip
33f80810:	e35c0000 	cmp	ip, #0
33f80814:	1a00000f 	bne	33f80858 <strncmp+0x60>
33f80818:	e3530000 	cmp	r3, #0
33f8081c:	01a00003 	moveq	r0, r3
33f80820:	1a000008 	bne	33f80848 <strncmp+0x50>
33f80824:	e12fff1e 	bx	lr
33f80828:	e5f03001 	ldrb	r3, [r0, #1]!
33f8082c:	e5f1c001 	ldrb	ip, [r1, #1]!
33f80830:	e06cc003 	rsb	ip, ip, r3
33f80834:	e6efc07c 	uxtb	ip, ip
33f80838:	e35c0000 	cmp	ip, #0
33f8083c:	1a000005 	bne	33f80858 <strncmp+0x60>
33f80840:	e3530000 	cmp	r3, #0
33f80844:	0a000005 	beq	33f80860 <strncmp+0x68>
33f80848:	e2522001 	subs	r2, r2, #1
33f8084c:	1afffff5 	bne	33f80828 <strncmp+0x30>
33f80850:	e1a00002 	mov	r0, r2
33f80854:	e12fff1e 	bx	lr
33f80858:	e6af007c 	sxtb	r0, ip
33f8085c:	e12fff1e 	bx	lr
33f80860:	e1a00003 	mov	r0, r3
33f80864:	e12fff1e 	bx	lr

33f80868 <strchr>:
33f80868:	e5d03000 	ldrb	r3, [r0]
33f8086c:	e6ef1071 	uxtb	r1, r1
33f80870:	e1530001 	cmp	r3, r1
33f80874:	012fff1e 	bxeq	lr
33f80878:	e3530000 	cmp	r3, #0
33f8087c:	12802001 	addne	r2, r0, #1
33f80880:	1a000002 	bne	33f80890 <strchr+0x28>
33f80884:	ea000009 	b	33f808b0 <strchr+0x48>
33f80888:	e3530000 	cmp	r3, #0
33f8088c:	0a000005 	beq	33f808a8 <strchr+0x40>
33f80890:	e5d23000 	ldrb	r3, [r2]
33f80894:	e1a00002 	mov	r0, r2
33f80898:	e1530001 	cmp	r3, r1
33f8089c:	e2822001 	add	r2, r2, #1
33f808a0:	1afffff8 	bne	33f80888 <strchr+0x20>
33f808a4:	e12fff1e 	bx	lr
33f808a8:	e1a00003 	mov	r0, r3
33f808ac:	e12fff1e 	bx	lr
33f808b0:	e1a00003 	mov	r0, r3
33f808b4:	e12fff1e 	bx	lr

33f808b8 <strrchr>:
33f808b8:	e5d02000 	ldrb	r2, [r0]
33f808bc:	e1a03000 	mov	r3, r0
33f808c0:	e3520000 	cmp	r2, #0
33f808c4:	0a000005 	beq	33f808e0 <strrchr+0x28>
33f808c8:	e2800001 	add	r0, r0, #1
33f808cc:	e1a02000 	mov	r2, r0
33f808d0:	e4d0c001 	ldrb	ip, [r0], #1
33f808d4:	e35c0000 	cmp	ip, #0
33f808d8:	1afffffb 	bne	33f808cc <strrchr+0x14>
33f808dc:	e0632002 	rsb	r2, r3, r2
33f808e0:	e6ef1071 	uxtb	r1, r1
33f808e4:	e0832002 	add	r2, r3, r2
33f808e8:	e5d2c000 	ldrb	ip, [r2]
33f808ec:	e1a00002 	mov	r0, r2
33f808f0:	e15c0001 	cmp	ip, r1
33f808f4:	e2422001 	sub	r2, r2, #1
33f808f8:	012fff1e 	bxeq	lr
33f808fc:	e1530002 	cmp	r3, r2
33f80900:	9afffff8 	bls	33f808e8 <strrchr+0x30>
33f80904:	e3a00000 	mov	r0, #0
33f80908:	e12fff1e 	bx	lr

33f8090c <strlen>:
33f8090c:	e5d01000 	ldrb	r1, [r0]
33f80910:	e3510000 	cmp	r1, #0
33f80914:	0a000006 	beq	33f80934 <strlen+0x28>
33f80918:	e2803001 	add	r3, r0, #1
33f8091c:	e1a01003 	mov	r1, r3
33f80920:	e4d32001 	ldrb	r2, [r3], #1
33f80924:	e3520000 	cmp	r2, #0
33f80928:	1afffffb 	bne	33f8091c <strlen+0x10>
33f8092c:	e0600001 	rsb	r0, r0, r1
33f80930:	e12fff1e 	bx	lr
33f80934:	e1a00001 	mov	r0, r1
33f80938:	e12fff1e 	bx	lr

33f8093c <strnlen>:
33f8093c:	e3510000 	cmp	r1, #0
33f80940:	01a00001 	moveq	r0, r1
33f80944:	012fff1e 	bxeq	lr
33f80948:	e5d03000 	ldrb	r3, [r0]
33f8094c:	e3530000 	cmp	r3, #0
33f80950:	0a00000d 	beq	33f8098c <strnlen+0x50>
33f80954:	e2411001 	sub	r1, r1, #1
33f80958:	e2803001 	add	r3, r0, #1
33f8095c:	ea000003 	b	33f80970 <strnlen+0x34>
33f80960:	e4d32001 	ldrb	r2, [r3], #1
33f80964:	e2411001 	sub	r1, r1, #1
33f80968:	e3520000 	cmp	r2, #0
33f8096c:	0a000004 	beq	33f80984 <strnlen+0x48>
33f80970:	e3510000 	cmp	r1, #0
33f80974:	e1a0c003 	mov	ip, r3
33f80978:	1afffff8 	bne	33f80960 <strnlen+0x24>
33f8097c:	e0600003 	rsb	r0, r0, r3
33f80980:	e12fff1e 	bx	lr
33f80984:	e060000c 	rsb	r0, r0, ip
33f80988:	e12fff1e 	bx	lr
33f8098c:	e1a00003 	mov	r0, r3
33f80990:	e12fff1e 	bx	lr

33f80994 <strspn>:
33f80994:	e92d0030 	push	{r4, r5}
33f80998:	e5d03000 	ldrb	r3, [r0]
33f8099c:	e3530000 	cmp	r3, #0
33f809a0:	01a00003 	moveq	r0, r3
33f809a4:	0a00000e 	beq	33f809e4 <strspn+0x50>
33f809a8:	e5d14000 	ldrb	r4, [r1]
33f809ac:	e1a05000 	mov	r5, r0
33f809b0:	e3540000 	cmp	r4, #0
33f809b4:	01a00004 	moveq	r0, r4
33f809b8:	0a000009 	beq	33f809e4 <strspn+0x50>
33f809bc:	e3a00000 	mov	r0, #0
33f809c0:	e1540003 	cmp	r4, r3
33f809c4:	11a0c001 	movne	ip, r1
33f809c8:	1a000002 	bne	33f809d8 <strspn+0x44>
33f809cc:	ea000006 	b	33f809ec <strspn+0x58>
33f809d0:	e1530002 	cmp	r3, r2
33f809d4:	0a000004 	beq	33f809ec <strspn+0x58>
33f809d8:	e5fc2001 	ldrb	r2, [ip, #1]!
33f809dc:	e3520000 	cmp	r2, #0
33f809e0:	1afffffa 	bne	33f809d0 <strspn+0x3c>
33f809e4:	e8bd0030 	pop	{r4, r5}
33f809e8:	e12fff1e 	bx	lr
33f809ec:	e5f53001 	ldrb	r3, [r5, #1]!
33f809f0:	e2800001 	add	r0, r0, #1
33f809f4:	e3530000 	cmp	r3, #0
33f809f8:	1afffff0 	bne	33f809c0 <strspn+0x2c>
33f809fc:	eafffff8 	b	33f809e4 <strspn+0x50>

33f80a00 <strpbrk>:
33f80a00:	e92d0030 	push	{r4, r5}
33f80a04:	e5d03000 	ldrb	r3, [r0]
33f80a08:	e3530000 	cmp	r3, #0
33f80a0c:	0a000010 	beq	33f80a54 <strpbrk+0x54>
33f80a10:	e5d15000 	ldrb	r5, [r1]
33f80a14:	e1a04000 	mov	r4, r0
33f80a18:	e3550000 	cmp	r5, #0
33f80a1c:	e1a00004 	mov	r0, r4
33f80a20:	0a000008 	beq	33f80a48 <strpbrk+0x48>
33f80a24:	e1550003 	cmp	r5, r3
33f80a28:	0a00000a 	beq	33f80a58 <strpbrk+0x58>
33f80a2c:	e1a0c001 	mov	ip, r1
33f80a30:	ea000001 	b	33f80a3c <strpbrk+0x3c>
33f80a34:	e1530002 	cmp	r3, r2
33f80a38:	0a000006 	beq	33f80a58 <strpbrk+0x58>
33f80a3c:	e5fc2001 	ldrb	r2, [ip, #1]!
33f80a40:	e3520000 	cmp	r2, #0
33f80a44:	1afffffa 	bne	33f80a34 <strpbrk+0x34>
33f80a48:	e5f43001 	ldrb	r3, [r4, #1]!
33f80a4c:	e3530000 	cmp	r3, #0
33f80a50:	1afffff0 	bne	33f80a18 <strpbrk+0x18>
33f80a54:	e1a00003 	mov	r0, r3
33f80a58:	e8bd0030 	pop	{r4, r5}
33f80a5c:	e12fff1e 	bx	lr

33f80a60 <strtok>:
33f80a60:	e92d4070 	push	{r4, r5, r6, lr}
33f80a64:	e2504000 	subs	r4, r0, #0
33f80a68:	e1a05001 	mov	r5, r1
33f80a6c:	159f60a8 	ldrne	r6, [pc, #168]	; 33f80b1c <strtok+0xbc>
33f80a70:	0a000023 	beq	33f80b04 <strtok+0xa4>
33f80a74:	e1a00004 	mov	r0, r4
33f80a78:	e1a01005 	mov	r1, r5
33f80a7c:	ebffffc4 	bl	33f80994 <strspn>
33f80a80:	e7f41000 	ldrb	r1, [r4, r0]!
33f80a84:	e3510000 	cmp	r1, #0
33f80a88:	05861000 	streq	r1, [r6]
33f80a8c:	01a04001 	moveq	r4, r1
33f80a90:	0a000011 	beq	33f80adc <strtok+0x7c>
33f80a94:	e5d5c000 	ldrb	ip, [r5]
33f80a98:	e1a00004 	mov	r0, r4
33f80a9c:	e35c0000 	cmp	ip, #0
33f80aa0:	0a000008 	beq	33f80ac8 <strtok+0x68>
33f80aa4:	e151000c 	cmp	r1, ip
33f80aa8:	0a00000d 	beq	33f80ae4 <strtok+0x84>
33f80aac:	e1a02005 	mov	r2, r5
33f80ab0:	ea000001 	b	33f80abc <strtok+0x5c>
33f80ab4:	e1530001 	cmp	r3, r1
33f80ab8:	0a000009 	beq	33f80ae4 <strtok+0x84>
33f80abc:	e5f23001 	ldrb	r3, [r2, #1]!
33f80ac0:	e3530000 	cmp	r3, #0
33f80ac4:	1afffffa 	bne	33f80ab4 <strtok+0x54>
33f80ac8:	e5f01001 	ldrb	r1, [r0, #1]!
33f80acc:	e3510000 	cmp	r1, #0
33f80ad0:	1afffff1 	bne	33f80a9c <strtok+0x3c>
33f80ad4:	e1a00001 	mov	r0, r1
33f80ad8:	e5860000 	str	r0, [r6]
33f80adc:	e1a00004 	mov	r0, r4
33f80ae0:	e8bd8070 	pop	{r4, r5, r6, pc}
33f80ae4:	e3500000 	cmp	r0, #0
33f80ae8:	0afffffa 	beq	33f80ad8 <strtok+0x78>
33f80aec:	e5d03000 	ldrb	r3, [r0]
33f80af0:	e3530000 	cmp	r3, #0
33f80af4:	13a03000 	movne	r3, #0
33f80af8:	14c03001 	strbne	r3, [r0], #1
33f80afc:	e5860000 	str	r0, [r6]
33f80b00:	eafffff5 	b	33f80adc <strtok+0x7c>
33f80b04:	e59f6010 	ldr	r6, [pc, #16]	; 33f80b1c <strtok+0xbc>
33f80b08:	e5964000 	ldr	r4, [r6]
33f80b0c:	e3540000 	cmp	r4, #0
33f80b10:	1affffd7 	bne	33f80a74 <strtok+0x14>
33f80b14:	e1a00004 	mov	r0, r4
33f80b18:	e8bd8070 	pop	{r4, r5, r6, pc}
33f80b1c:	33f82bd0 	mvnscc	r2, #212992	; 0x34000

33f80b20 <strsep>:
33f80b20:	e5903000 	ldr	r3, [r0]
33f80b24:	e92d0070 	push	{r4, r5, r6}
33f80b28:	e3530000 	cmp	r3, #0
33f80b2c:	0a000014 	beq	33f80b84 <strsep+0x64>
33f80b30:	e5d34000 	ldrb	r4, [r3]
33f80b34:	e3540000 	cmp	r4, #0
33f80b38:	0a00000f 	beq	33f80b7c <strsep+0x5c>
33f80b3c:	e5d16000 	ldrb	r6, [r1]
33f80b40:	e1a05003 	mov	r5, r3
33f80b44:	e3560000 	cmp	r6, #0
33f80b48:	0a000008 	beq	33f80b70 <strsep+0x50>
33f80b4c:	e1560004 	cmp	r6, r4
33f80b50:	0a00000e 	beq	33f80b90 <strsep+0x70>
33f80b54:	e1a0c001 	mov	ip, r1
33f80b58:	ea000001 	b	33f80b64 <strsep+0x44>
33f80b5c:	e1520004 	cmp	r2, r4
33f80b60:	0a00000a 	beq	33f80b90 <strsep+0x70>
33f80b64:	e5fc2001 	ldrb	r2, [ip, #1]!
33f80b68:	e3520000 	cmp	r2, #0
33f80b6c:	1afffffa 	bne	33f80b5c <strsep+0x3c>
33f80b70:	e5f54001 	ldrb	r4, [r5, #1]!
33f80b74:	e3540000 	cmp	r4, #0
33f80b78:	1afffff1 	bne	33f80b44 <strsep+0x24>
33f80b7c:	e1a05004 	mov	r5, r4
33f80b80:	e5805000 	str	r5, [r0]
33f80b84:	e1a00003 	mov	r0, r3
33f80b88:	e8bd0070 	pop	{r4, r5, r6}
33f80b8c:	e12fff1e 	bx	lr
33f80b90:	e3550000 	cmp	r5, #0
33f80b94:	13a02000 	movne	r2, #0
33f80b98:	14c52001 	strbne	r2, [r5], #1
33f80b9c:	e5805000 	str	r5, [r0]
33f80ba0:	eafffff7 	b	33f80b84 <strsep+0x64>

33f80ba4 <memset>:
33f80ba4:	e3520000 	cmp	r2, #0
33f80ba8:	012fff1e 	bxeq	lr
33f80bac:	e6ef1071 	uxtb	r1, r1
33f80bb0:	e3a03000 	mov	r3, #0
33f80bb4:	e7c01003 	strb	r1, [r0, r3]
33f80bb8:	e2833001 	add	r3, r3, #1
33f80bbc:	e1530002 	cmp	r3, r2
33f80bc0:	1afffffb 	bne	33f80bb4 <memset+0x10>
33f80bc4:	e12fff1e 	bx	lr

33f80bc8 <bcopy>:
33f80bc8:	e3520000 	cmp	r2, #0
33f80bcc:	012fff1e 	bxeq	lr
33f80bd0:	e3a03000 	mov	r3, #0
33f80bd4:	e7d0c003 	ldrb	ip, [r0, r3]
33f80bd8:	e7c1c003 	strb	ip, [r1, r3]
33f80bdc:	e2833001 	add	r3, r3, #1
33f80be0:	e1530002 	cmp	r3, r2
33f80be4:	1afffffa 	bne	33f80bd4 <bcopy+0xc>
33f80be8:	e12fff1e 	bx	lr

33f80bec <memcpy>:
33f80bec:	e3520000 	cmp	r2, #0
33f80bf0:	012fff1e 	bxeq	lr
33f80bf4:	e3a03000 	mov	r3, #0
33f80bf8:	e7d1c003 	ldrb	ip, [r1, r3]
33f80bfc:	e7c0c003 	strb	ip, [r0, r3]
33f80c00:	e2833001 	add	r3, r3, #1
33f80c04:	e1530002 	cmp	r3, r2
33f80c08:	1afffffa 	bne	33f80bf8 <memcpy+0xc>
33f80c0c:	e12fff1e 	bx	lr

33f80c10 <memmove>:
33f80c10:	e1500001 	cmp	r0, r1
33f80c14:	8a000008 	bhi	33f80c3c <memmove+0x2c>
33f80c18:	e3520000 	cmp	r2, #0
33f80c1c:	012fff1e 	bxeq	lr
33f80c20:	e3a03000 	mov	r3, #0
33f80c24:	e7d1c003 	ldrb	ip, [r1, r3]
33f80c28:	e7c0c003 	strb	ip, [r0, r3]
33f80c2c:	e2833001 	add	r3, r3, #1
33f80c30:	e1530002 	cmp	r3, r2
33f80c34:	1afffffa 	bne	33f80c24 <memmove+0x14>
33f80c38:	e12fff1e 	bx	lr
33f80c3c:	e3520000 	cmp	r2, #0
33f80c40:	012fff1e 	bxeq	lr
33f80c44:	e0811002 	add	r1, r1, r2
33f80c48:	e0803002 	add	r3, r0, r2
33f80c4c:	e571c001 	ldrb	ip, [r1, #-1]!
33f80c50:	e2522001 	subs	r2, r2, #1
33f80c54:	e563c001 	strb	ip, [r3, #-1]!
33f80c58:	1afffffb 	bne	33f80c4c <memmove+0x3c>
33f80c5c:	e12fff1e 	bx	lr

33f80c60 <memcmp>:
33f80c60:	e3520000 	cmp	r2, #0
33f80c64:	e1a03000 	mov	r3, r0
33f80c68:	e52d4004 	push	{r4}		; (str r4, [sp, #-4]!)
33f80c6c:	01a00002 	moveq	r0, r2
33f80c70:	0a00000a 	beq	33f80ca0 <memcmp+0x40>
33f80c74:	e5d3c000 	ldrb	ip, [r3]
33f80c78:	e5d10000 	ldrb	r0, [r1]
33f80c7c:	e05c0000 	subs	r0, ip, r0
33f80c80:	0a000004 	beq	33f80c98 <memcmp+0x38>
33f80c84:	ea000005 	b	33f80ca0 <memcmp+0x40>
33f80c88:	e5f34001 	ldrb	r4, [r3, #1]!
33f80c8c:	e5f1c001 	ldrb	ip, [r1, #1]!
33f80c90:	e054c00c 	subs	ip, r4, ip
33f80c94:	1a000003 	bne	33f80ca8 <memcmp+0x48>
33f80c98:	e2522001 	subs	r2, r2, #1
33f80c9c:	1afffff9 	bne	33f80c88 <memcmp+0x28>
33f80ca0:	e8bd0010 	pop	{r4}
33f80ca4:	e12fff1e 	bx	lr
33f80ca8:	e1a0000c 	mov	r0, ip
33f80cac:	eafffffb 	b	33f80ca0 <memcmp+0x40>

33f80cb0 <memscan>:
33f80cb0:	e3520000 	cmp	r2, #0
33f80cb4:	e1a03000 	mov	r3, r0
33f80cb8:	012fff1e 	bxeq	lr
33f80cbc:	e5d3c000 	ldrb	ip, [r3]
33f80cc0:	e15c0001 	cmp	ip, r1
33f80cc4:	12833001 	addne	r3, r3, #1
33f80cc8:	1a000003 	bne	33f80cdc <memscan+0x2c>
33f80ccc:	e12fff1e 	bx	lr
33f80cd0:	e4d3c001 	ldrb	ip, [r3], #1
33f80cd4:	e15c0001 	cmp	ip, r1
33f80cd8:	012fff1e 	bxeq	lr
33f80cdc:	e2522001 	subs	r2, r2, #1
33f80ce0:	e1a00003 	mov	r0, r3
33f80ce4:	1afffff9 	bne	33f80cd0 <memscan+0x20>
33f80ce8:	e12fff1e 	bx	lr

33f80cec <strstr>:
33f80cec:	e5d13000 	ldrb	r3, [r1]
33f80cf0:	e92d01f0 	push	{r4, r5, r6, r7, r8}
33f80cf4:	e3530000 	cmp	r3, #0
33f80cf8:	0a000006 	beq	33f80d18 <strstr+0x2c>
33f80cfc:	e2812001 	add	r2, r1, #1
33f80d00:	e1a04002 	mov	r4, r2
33f80d04:	e4d2c001 	ldrb	ip, [r2], #1
33f80d08:	e35c0000 	cmp	ip, #0
33f80d0c:	1afffffb 	bne	33f80d00 <strstr+0x14>
33f80d10:	e0548001 	subs	r8, r4, r1
33f80d14:	1a000001 	bne	33f80d20 <strstr+0x34>
33f80d18:	e8bd01f0 	pop	{r4, r5, r6, r7, r8}
33f80d1c:	e12fff1e 	bx	lr
33f80d20:	e5d0c000 	ldrb	ip, [r0]
33f80d24:	e35c0000 	cmp	ip, #0
33f80d28:	01a07000 	moveq	r7, r0
33f80d2c:	0a000004 	beq	33f80d44 <strstr+0x58>
33f80d30:	e2802001 	add	r2, r0, #1
33f80d34:	e1a07002 	mov	r7, r2
33f80d38:	e4d24001 	ldrb	r4, [r2], #1
33f80d3c:	e3540000 	cmp	r4, #0
33f80d40:	1afffffb 	bne	33f80d34 <strstr+0x48>
33f80d44:	e0607007 	rsb	r7, r0, r7
33f80d48:	e1580007 	cmp	r8, r7
33f80d4c:	ca000010 	bgt	33f80d94 <strstr+0xa8>
33f80d50:	e3580000 	cmp	r8, #0
33f80d54:	0affffef 	beq	33f80d18 <strstr+0x2c>
33f80d58:	e15c0003 	cmp	ip, r3
33f80d5c:	01a04000 	moveq	r4, r0
33f80d60:	01a0c001 	moveq	ip, r1
33f80d64:	01a02008 	moveq	r2, r8
33f80d68:	1a000005 	bne	33f80d84 <strstr+0x98>
33f80d6c:	e2522001 	subs	r2, r2, #1
33f80d70:	0affffe8 	beq	33f80d18 <strstr+0x2c>
33f80d74:	e5f46001 	ldrb	r6, [r4, #1]!
33f80d78:	e5fc5001 	ldrb	r5, [ip, #1]!
33f80d7c:	e1560005 	cmp	r6, r5
33f80d80:	0afffff9 	beq	33f80d6c <strstr+0x80>
33f80d84:	e2477001 	sub	r7, r7, #1
33f80d88:	e1580007 	cmp	r8, r7
33f80d8c:	d5f0c001 	ldrble	ip, [r0, #1]!
33f80d90:	dafffff0 	ble	33f80d58 <strstr+0x6c>
33f80d94:	e3a00000 	mov	r0, #0
33f80d98:	eaffffde 	b	33f80d18 <strstr+0x2c>

33f80d9c <memchr>:
33f80d9c:	e6ef1071 	uxtb	r1, r1
33f80da0:	ea000003 	b	33f80db4 <memchr+0x18>
33f80da4:	e4d03001 	ldrb	r3, [r0], #1
33f80da8:	e2422001 	sub	r2, r2, #1
33f80dac:	e1510003 	cmp	r1, r3
33f80db0:	0a000004 	beq	33f80dc8 <memchr+0x2c>
33f80db4:	e3520000 	cmp	r2, #0
33f80db8:	e1a0c000 	mov	ip, r0
33f80dbc:	1afffff8 	bne	33f80da4 <memchr+0x8>
33f80dc0:	e1a00002 	mov	r0, r2
33f80dc4:	e12fff1e 	bx	lr
33f80dc8:	e1a0000c 	mov	r0, ip
33f80dcc:	e12fff1e 	bx	lr

33f80dd0 <number>:
33f80dd0:	e92d4ff0 	push	{r4, r5, r6, r7, r8, r9, sl, fp, lr}
33f80dd4:	e24dd05c 	sub	sp, sp, #92	; 0x5c
33f80dd8:	e59db08c 	ldr	fp, [sp, #140]	; 0x8c
33f80ddc:	e59fc2e0 	ldr	ip, [pc, #736]	; 33f810c4 <number+0x2f4>
33f80de0:	e59d8080 	ldr	r8, [sp, #128]	; 0x80
33f80de4:	e31b0040 	tst	fp, #64	; 0x40
33f80de8:	e24ca028 	sub	sl, ip, #40	; 0x28
33f80dec:	01a0a00c 	moveq	sl, ip
33f80df0:	e1a07001 	mov	r7, r1
33f80df4:	e31b0010 	tst	fp, #16
33f80df8:	e2481002 	sub	r1, r8, #2
33f80dfc:	13cbb001 	bicne	fp, fp, #1
33f80e00:	e3510022 	cmp	r1, #34	; 0x22
33f80e04:	e1a05000 	mov	r5, r0
33f80e08:	8a00008b 	bhi	33f8103c <number+0x26c>
33f80e0c:	e31b0001 	tst	fp, #1
33f80e10:	03a00020 	moveq	r0, #32
33f80e14:	13a00030 	movne	r0, #48	; 0x30
33f80e18:	e21b1002 	ands	r1, fp, #2
33f80e1c:	e58d000c 	str	r0, [sp, #12]
33f80e20:	1a000079 	bne	33f8100c <number+0x23c>
33f80e24:	e58d1004 	str	r1, [sp, #4]
33f80e28:	e21b1020 	ands	r1, fp, #32
33f80e2c:	e58d1008 	str	r1, [sp, #8]
33f80e30:	0a000005 	beq	33f80e4c <number+0x7c>
33f80e34:	e3580010 	cmp	r8, #16
33f80e38:	0a000095 	beq	33f81094 <number+0x2c4>
33f80e3c:	e3580008 	cmp	r8, #8
33f80e40:	059d1084 	ldreq	r1, [sp, #132]	; 0x84
33f80e44:	02411001 	subeq	r1, r1, #1
33f80e48:	058d1084 	streq	r1, [sp, #132]	; 0x84
33f80e4c:	e1921003 	orrs	r1, r2, r3
33f80e50:	13a06000 	movne	r6, #0
33f80e54:	128d9014 	addne	r9, sp, #20
33f80e58:	1a000060 	bne	33f80fe0 <number+0x210>
33f80e5c:	e3a03030 	mov	r3, #48	; 0x30
33f80e60:	e5cd3014 	strb	r3, [sp, #20]
33f80e64:	e3a06001 	mov	r6, #1
33f80e68:	e1a03001 	mov	r3, r1
33f80e6c:	e59d1088 	ldr	r1, [sp, #136]	; 0x88
33f80e70:	e59d2084 	ldr	r2, [sp, #132]	; 0x84
33f80e74:	e1560001 	cmp	r6, r1
33f80e78:	a1a01006 	movge	r1, r6
33f80e7c:	b1a01001 	movlt	r1, r1
33f80e80:	e31b0011 	tst	fp, #17
33f80e84:	e0610002 	rsb	r0, r1, r2
33f80e88:	1a00000f 	bne	33f80ecc <number+0xfc>
33f80e8c:	e3500000 	cmp	r0, #0
33f80e90:	e2404001 	sub	r4, r0, #1
33f80e94:	d1a00004 	movle	r0, r4
33f80e98:	da00000b 	ble	33f80ecc <number+0xfc>
33f80e9c:	e58d0000 	str	r0, [sp]
33f80ea0:	e085c000 	add	ip, r5, r0
33f80ea4:	e1a02005 	mov	r2, r5
33f80ea8:	e3a09020 	mov	r9, #32
33f80eac:	e1570002 	cmp	r7, r2
33f80eb0:	25c29000 	strbcs	r9, [r2]
33f80eb4:	e2822001 	add	r2, r2, #1
33f80eb8:	e152000c 	cmp	r2, ip
33f80ebc:	1afffffa 	bne	33f80eac <number+0xdc>
33f80ec0:	e59d2000 	ldr	r2, [sp]
33f80ec4:	e0600004 	rsb	r0, r0, r4
33f80ec8:	e0855002 	add	r5, r5, r2
33f80ecc:	e59d2004 	ldr	r2, [sp, #4]
33f80ed0:	e3520000 	cmp	r2, #0
33f80ed4:	0a000002 	beq	33f80ee4 <number+0x114>
33f80ed8:	e1550007 	cmp	r5, r7
33f80edc:	95c52000 	strbls	r2, [r5]
33f80ee0:	e2855001 	add	r5, r5, #1
33f80ee4:	e59d2008 	ldr	r2, [sp, #8]
33f80ee8:	e3520000 	cmp	r2, #0
33f80eec:	0a000003 	beq	33f80f00 <number+0x130>
33f80ef0:	e3580008 	cmp	r8, #8
33f80ef4:	0a000061 	beq	33f81080 <number+0x2b0>
33f80ef8:	e3580010 	cmp	r8, #16
33f80efc:	0a000056 	beq	33f8105c <number+0x28c>
33f80f00:	e31b0010 	tst	fp, #16
33f80f04:	1a00000b 	bne	33f80f38 <number+0x168>
33f80f08:	e3500000 	cmp	r0, #0
33f80f0c:	e2402001 	sub	r2, r0, #1
33f80f10:	d1a00002 	movle	r0, r2
33f80f14:	da000007 	ble	33f80f38 <number+0x168>
33f80f18:	e59d200c 	ldr	r2, [sp, #12]
33f80f1c:	e0850000 	add	r0, r5, r0
33f80f20:	e1570005 	cmp	r7, r5
33f80f24:	25c52000 	strbcs	r2, [r5]
33f80f28:	e2855001 	add	r5, r5, #1
33f80f2c:	e1550000 	cmp	r5, r0
33f80f30:	1afffffa 	bne	33f80f20 <number+0x150>
33f80f34:	e3e00000 	mvn	r0, #0
33f80f38:	e1510006 	cmp	r1, r6
33f80f3c:	da000012 	ble	33f80f8c <number+0x1bc>
33f80f40:	e3a02000 	mov	r2, #0
33f80f44:	e3a04030 	mov	r4, #48	; 0x30
33f80f48:	e085c002 	add	ip, r5, r2
33f80f4c:	e157000c 	cmp	r7, ip
33f80f50:	27c54002 	strbcs	r4, [r5, r2]
33f80f54:	e2822001 	add	r2, r2, #1
33f80f58:	e062c001 	rsb	ip, r2, r1
33f80f5c:	e156000c 	cmp	r6, ip
33f80f60:	bafffff8 	blt	33f80f48 <number+0x178>
33f80f64:	e0661001 	rsb	r1, r6, r1
33f80f68:	e0855001 	add	r5, r5, r1
33f80f6c:	e1550007 	cmp	r5, r7
33f80f70:	928d2014 	addls	r2, sp, #20
33f80f74:	97d22003 	ldrbls	r2, [r2, r3]
33f80f78:	95c52000 	strbls	r2, [r5]
33f80f7c:	e3530000 	cmp	r3, #0
33f80f80:	e2855001 	add	r5, r5, #1
33f80f84:	0a000007 	beq	33f80fa8 <number+0x1d8>
33f80f88:	e2433001 	sub	r3, r3, #1
33f80f8c:	e1550007 	cmp	r5, r7
33f80f90:	928d2014 	addls	r2, sp, #20
33f80f94:	97d22003 	ldrbls	r2, [r2, r3]
33f80f98:	95c52000 	strbls	r2, [r5]
33f80f9c:	e3530000 	cmp	r3, #0
33f80fa0:	e2855001 	add	r5, r5, #1
33f80fa4:	1afffff7 	bne	33f80f88 <number+0x1b8>
33f80fa8:	e3500000 	cmp	r0, #0
33f80fac:	e1a01005 	mov	r1, r5
33f80fb0:	da000007 	ble	33f80fd4 <number+0x204>
33f80fb4:	e0853000 	add	r3, r5, r0
33f80fb8:	e3a02020 	mov	r2, #32
33f80fbc:	e1570005 	cmp	r7, r5
33f80fc0:	25c52000 	strbcs	r2, [r5]
33f80fc4:	e2855001 	add	r5, r5, #1
33f80fc8:	e1550003 	cmp	r5, r3
33f80fcc:	1afffffa 	bne	33f80fbc <number+0x1ec>
33f80fd0:	e0815000 	add	r5, r1, r0
33f80fd4:	e1a00005 	mov	r0, r5
33f80fd8:	e28dd05c 	add	sp, sp, #92	; 0x5c
33f80fdc:	e8bd8ff0 	pop	{r4, r5, r6, r7, r8, r9, sl, fp, pc}
33f80fe0:	e1a00002 	mov	r0, r2
33f80fe4:	e1a01003 	mov	r1, r3
33f80fe8:	e1a04008 	mov	r4, r8
33f80fec:	eb0004ab 	bl	33f822a0 <__do_div64>
33f80ff0:	e7da1001 	ldrb	r1, [sl, r1]
33f80ff4:	e1920003 	orrs	r0, r2, r3
33f80ff8:	e7c91006 	strb	r1, [r9, r6]
33f80ffc:	e2866001 	add	r6, r6, #1
33f81000:	1afffff6 	bne	33f80fe0 <number+0x210>
33f81004:	e2463001 	sub	r3, r6, #1
33f81008:	eaffff97 	b	33f80e6c <number+0x9c>
33f8100c:	e3530000 	cmp	r3, #0
33f81010:	ba000023 	blt	33f810a4 <number+0x2d4>
33f81014:	e31b0004 	tst	fp, #4
33f81018:	1a000009 	bne	33f81044 <number+0x274>
33f8101c:	e21b1008 	ands	r1, fp, #8
33f81020:	0affff7f 	beq	33f80e24 <number+0x54>
33f81024:	e59d1084 	ldr	r1, [sp, #132]	; 0x84
33f81028:	e3a00020 	mov	r0, #32
33f8102c:	e2411001 	sub	r1, r1, #1
33f81030:	e58d1084 	str	r1, [sp, #132]	; 0x84
33f81034:	e58d0004 	str	r0, [sp, #4]
33f81038:	eaffff7a 	b	33f80e28 <number+0x58>
33f8103c:	e3a05000 	mov	r5, #0
33f81040:	eaffffe3 	b	33f80fd4 <number+0x204>
33f81044:	e59d1084 	ldr	r1, [sp, #132]	; 0x84
33f81048:	e3a0002b 	mov	r0, #43	; 0x2b
33f8104c:	e2411001 	sub	r1, r1, #1
33f81050:	e58d1084 	str	r1, [sp, #132]	; 0x84
33f81054:	e58d0004 	str	r0, [sp, #4]
33f81058:	eaffff72 	b	33f80e28 <number+0x58>
33f8105c:	e1550007 	cmp	r5, r7
33f81060:	93a02030 	movls	r2, #48	; 0x30
33f81064:	95c52000 	strbls	r2, [r5]
33f81068:	e2852001 	add	r2, r5, #1
33f8106c:	e1570002 	cmp	r7, r2
33f81070:	25dac021 	ldrbcs	ip, [sl, #33]	; 0x21
33f81074:	25c5c001 	strbcs	ip, [r5, #1]
33f81078:	e2825001 	add	r5, r2, #1
33f8107c:	eaffff9f 	b	33f80f00 <number+0x130>
33f81080:	e1550007 	cmp	r5, r7
33f81084:	93a02030 	movls	r2, #48	; 0x30
33f81088:	95c52000 	strbls	r2, [r5]
33f8108c:	e2855001 	add	r5, r5, #1
33f81090:	eaffff9a 	b	33f80f00 <number+0x130>
33f81094:	e59d0084 	ldr	r0, [sp, #132]	; 0x84
33f81098:	e2400002 	sub	r0, r0, #2
33f8109c:	e58d0084 	str	r0, [sp, #132]	; 0x84
33f810a0:	eaffff69 	b	33f80e4c <number+0x7c>
33f810a4:	e59d1084 	ldr	r1, [sp, #132]	; 0x84
33f810a8:	e3a0002d 	mov	r0, #45	; 0x2d
33f810ac:	e2411001 	sub	r1, r1, #1
33f810b0:	e2722000 	rsbs	r2, r2, #0
33f810b4:	e2e33000 	rsc	r3, r3, #0
33f810b8:	e58d1084 	str	r1, [sp, #132]	; 0x84
33f810bc:	e58d0004 	str	r0, [sp, #4]
33f810c0:	eaffff58 	b	33f80e28 <number+0x58>
33f810c4:	33f82d00 	mvnscc	r2, #0

33f810c8 <simple_strtoul>:
33f810c8:	e3520000 	cmp	r2, #0
33f810cc:	e92d00f0 	push	{r4, r5, r6, r7}
33f810d0:	e1a03000 	mov	r3, r0
33f810d4:	1a000007 	bne	33f810f8 <simple_strtoul+0x30>
33f810d8:	e5d0c000 	ldrb	ip, [r0]
33f810dc:	e35c0030 	cmp	ip, #48	; 0x30
33f810e0:	0a00002b 	beq	33f81194 <simple_strtoul+0xcc>
33f810e4:	e59f7138 	ldr	r7, [pc, #312]	; 33f81224 <simple_strtoul+0x15c>
33f810e8:	e1a0500c 	mov	r5, ip
33f810ec:	e7d7400c 	ldrb	r4, [r7, ip]
33f810f0:	e3a0200a 	mov	r2, #10
33f810f4:	ea000005 	b	33f81110 <simple_strtoul+0x48>
33f810f8:	e3520010 	cmp	r2, #16
33f810fc:	0a00001d 	beq	33f81178 <simple_strtoul+0xb0>
33f81100:	e5d0c000 	ldrb	ip, [r0]
33f81104:	e59f7118 	ldr	r7, [pc, #280]	; 33f81224 <simple_strtoul+0x15c>
33f81108:	e1a0500c 	mov	r5, ip
33f8110c:	e7d7400c 	ldrb	r4, [r7, ip]
33f81110:	e2140044 	ands	r0, r4, #68	; 0x44
33f81114:	0a000013 	beq	33f81168 <simple_strtoul+0xa0>
33f81118:	e1a06003 	mov	r6, r3
33f8111c:	e3a00000 	mov	r0, #0
33f81120:	ea000007 	b	33f81144 <simple_strtoul+0x7c>
33f81124:	e5d6c001 	ldrb	ip, [r6, #1]
33f81128:	e0205092 	mla	r0, r2, r0, r5
33f8112c:	e7d7400c 	ldrb	r4, [r7, ip]
33f81130:	e2833001 	add	r3, r3, #1
33f81134:	e3140044 	tst	r4, #68	; 0x44
33f81138:	e1a0500c 	mov	r5, ip
33f8113c:	0a000009 	beq	33f81168 <simple_strtoul+0xa0>
33f81140:	e1a06003 	mov	r6, r3
33f81144:	e3140004 	tst	r4, #4
33f81148:	12455030 	subne	r5, r5, #48	; 0x30
33f8114c:	1a000003 	bne	33f81160 <simple_strtoul+0x98>
33f81150:	e3140002 	tst	r4, #2
33f81154:	124cc020 	subne	ip, ip, #32
33f81158:	16efc07c 	uxtbne	ip, ip
33f8115c:	e24c5037 	sub	r5, ip, #55	; 0x37
33f81160:	e1550002 	cmp	r5, r2
33f81164:	3affffee 	bcc	33f81124 <simple_strtoul+0x5c>
33f81168:	e3510000 	cmp	r1, #0
33f8116c:	15813000 	strne	r3, [r1]
33f81170:	e8bd00f0 	pop	{r4, r5, r6, r7}
33f81174:	e12fff1e 	bx	lr
33f81178:	e5d0c000 	ldrb	ip, [r0]
33f8117c:	e35c0030 	cmp	ip, #48	; 0x30
33f81180:	0a00001a 	beq	33f811f0 <simple_strtoul+0x128>
33f81184:	e59f7098 	ldr	r7, [pc, #152]	; 33f81224 <simple_strtoul+0x15c>
33f81188:	e1a0500c 	mov	r5, ip
33f8118c:	e7d7400c 	ldrb	r4, [r7, ip]
33f81190:	eaffffde 	b	33f81110 <simple_strtoul+0x48>
33f81194:	e5f3c001 	ldrb	ip, [r3, #1]!
33f81198:	e59f7084 	ldr	r7, [pc, #132]	; 33f81224 <simple_strtoul+0x15c>
33f8119c:	e1a0500c 	mov	r5, ip
33f811a0:	e7d7400c 	ldrb	r4, [r7, ip]
33f811a4:	e3140002 	tst	r4, #2
33f811a8:	124c2020 	subne	r2, ip, #32
33f811ac:	16ef2072 	uxtbne	r2, r2
33f811b0:	01a0200c 	moveq	r2, ip
33f811b4:	e3520058 	cmp	r2, #88	; 0x58
33f811b8:	0a000001 	beq	33f811c4 <simple_strtoul+0xfc>
33f811bc:	e3a02008 	mov	r2, #8
33f811c0:	eaffffd2 	b	33f81110 <simple_strtoul+0x48>
33f811c4:	e5d30001 	ldrb	r0, [r3, #1]
33f811c8:	e2836001 	add	r6, r3, #1
33f811cc:	e7d72000 	ldrb	r2, [r7, r0]
33f811d0:	e3120044 	tst	r2, #68	; 0x44
33f811d4:	0afffff8 	beq	33f811bc <simple_strtoul+0xf4>
33f811d8:	e1a04002 	mov	r4, r2
33f811dc:	e1a05000 	mov	r5, r0
33f811e0:	e1a0c000 	mov	ip, r0
33f811e4:	e1a03006 	mov	r3, r6
33f811e8:	e3a02010 	mov	r2, #16
33f811ec:	eaffffc9 	b	33f81118 <simple_strtoul+0x50>
33f811f0:	e5d00001 	ldrb	r0, [r0, #1]
33f811f4:	e59f7028 	ldr	r7, [pc, #40]	; 33f81224 <simple_strtoul+0x15c>
33f811f8:	e7d74000 	ldrb	r4, [r7, r0]
33f811fc:	e3140002 	tst	r4, #2
33f81200:	12400020 	subne	r0, r0, #32
33f81204:	16ef0070 	uxtbne	r0, r0
33f81208:	e3500058 	cmp	r0, #88	; 0x58
33f8120c:	05f3c002 	ldrbeq	ip, [r3, #2]!
33f81210:	15d74030 	ldrbne	r4, [r7, #48]	; 0x30
33f81214:	13a05030 	movne	r5, #48	; 0x30
33f81218:	01a0500c 	moveq	r5, ip
33f8121c:	07d7400c 	ldrbeq	r4, [r7, ip]
33f81220:	eaffffba 	b	33f81110 <simple_strtoul+0x48>
33f81224:	33f82bd8 	mvnscc	r2, #221184	; 0x36000

33f81228 <simple_strtol>:
33f81228:	e92d4010 	push	{r4, lr}
33f8122c:	e5d0c000 	ldrb	ip, [r0]
33f81230:	e35c002d 	cmp	ip, #45	; 0x2d
33f81234:	0a000001 	beq	33f81240 <simple_strtol+0x18>
33f81238:	e8bd4010 	pop	{r4, lr}
33f8123c:	eaffffa1 	b	33f810c8 <simple_strtoul>
33f81240:	e2800001 	add	r0, r0, #1
33f81244:	ebffff9f 	bl	33f810c8 <simple_strtoul>
33f81248:	e2600000 	rsb	r0, r0, #0
33f8124c:	e8bd8010 	pop	{r4, pc}

33f81250 <simple_strtoull>:
33f81250:	e92d0ff0 	push	{r4, r5, r6, r7, r8, r9, sl, fp}
33f81254:	e3520000 	cmp	r2, #0
33f81258:	e24dd008 	sub	sp, sp, #8
33f8125c:	e58d1004 	str	r1, [sp, #4]
33f81260:	1a000007 	bne	33f81284 <simple_strtoull+0x34>
33f81264:	e5d07000 	ldrb	r7, [r0]
33f81268:	e3570030 	cmp	r7, #48	; 0x30
33f8126c:	0a000037 	beq	33f81350 <simple_strtoull+0x100>
33f81270:	e59f9194 	ldr	r9, [pc, #404]	; 33f8140c <simple_strtoull+0x1bc>
33f81274:	e1a0a007 	mov	sl, r7
33f81278:	e7d96007 	ldrb	r6, [r9, r7]
33f8127c:	e3a0200a 	mov	r2, #10
33f81280:	ea000005 	b	33f8129c <simple_strtoull+0x4c>
33f81284:	e3520010 	cmp	r2, #16
33f81288:	0a00003c 	beq	33f81380 <simple_strtoull+0x130>
33f8128c:	e5d07000 	ldrb	r7, [r0]
33f81290:	e59f9174 	ldr	r9, [pc, #372]	; 33f8140c <simple_strtoull+0x1bc>
33f81294:	e1a0a007 	mov	sl, r7
33f81298:	e7d96007 	ldrb	r6, [r9, r7]
33f8129c:	e3160044 	tst	r6, #68	; 0x44
33f812a0:	11a04002 	movne	r4, r2
33f812a4:	13a05000 	movne	r5, #0
33f812a8:	0a000047 	beq	33f813cc <simple_strtoull+0x17c>
33f812ac:	e1a0c000 	mov	ip, r0
33f812b0:	e3a02000 	mov	r2, #0
33f812b4:	e3a03000 	mov	r3, #0
33f812b8:	ea00000c 	b	33f812f0 <simple_strtoull+0xa0>
33f812bc:	e0060592 	mul	r6, r2, r5
33f812c0:	e0810492 	umull	r0, r1, r2, r4
33f812c4:	e0266394 	mla	r6, r4, r3, r6
33f812c8:	e5dc7001 	ldrb	r7, [ip, #1]
33f812cc:	e0861001 	add	r1, r6, r1
33f812d0:	e7d96007 	ldrb	r6, [r9, r7]
33f812d4:	e09a2000 	adds	r2, sl, r0
33f812d8:	e0ab3001 	adc	r3, fp, r1
33f812dc:	e3160044 	tst	r6, #68	; 0x44
33f812e0:	e1a00008 	mov	r0, r8
33f812e4:	e1a0a007 	mov	sl, r7
33f812e8:	0a000010 	beq	33f81330 <simple_strtoull+0xe0>
33f812ec:	e1a0c008 	mov	ip, r8
33f812f0:	e3160004 	tst	r6, #4
33f812f4:	e1a0000c 	mov	r0, ip
33f812f8:	124aa030 	subne	sl, sl, #48	; 0x30
33f812fc:	1a000004 	bne	33f81314 <simple_strtoull+0xc4>
33f81300:	e3160002 	tst	r6, #2
33f81304:	1247a020 	subne	sl, r7, #32
33f81308:	16efa07a 	uxtbne	sl, sl
33f8130c:	124aa037 	subne	sl, sl, #55	; 0x37
33f81310:	024aa037 	subeq	sl, sl, #55	; 0x37
33f81314:	e1a0bfca 	asr	fp, sl, #31
33f81318:	e155000b 	cmp	r5, fp
33f8131c:	e28c8001 	add	r8, ip, #1
33f81320:	8affffe5 	bhi	33f812bc <simple_strtoull+0x6c>
33f81324:	1a000001 	bne	33f81330 <simple_strtoull+0xe0>
33f81328:	e154000a 	cmp	r4, sl
33f8132c:	8affffe2 	bhi	33f812bc <simple_strtoull+0x6c>
33f81330:	e59d1004 	ldr	r1, [sp, #4]
33f81334:	e3510000 	cmp	r1, #0
33f81338:	15810000 	strne	r0, [r1]
33f8133c:	e1a00002 	mov	r0, r2
33f81340:	e1a01003 	mov	r1, r3
33f81344:	e28dd008 	add	sp, sp, #8
33f81348:	e8bd0ff0 	pop	{r4, r5, r6, r7, r8, r9, sl, fp}
33f8134c:	e12fff1e 	bx	lr
33f81350:	e5f07001 	ldrb	r7, [r0, #1]!
33f81354:	e59f90b0 	ldr	r9, [pc, #176]	; 33f8140c <simple_strtoull+0x1bc>
33f81358:	e1a0a007 	mov	sl, r7
33f8135c:	e7d96007 	ldrb	r6, [r9, r7]
33f81360:	e3160002 	tst	r6, #2
33f81364:	12473020 	subne	r3, r7, #32
33f81368:	16ef3073 	uxtbne	r3, r3
33f8136c:	01a03007 	moveq	r3, r7
33f81370:	e3530058 	cmp	r3, #88	; 0x58
33f81374:	0a000008 	beq	33f8139c <simple_strtoull+0x14c>
33f81378:	e3a02008 	mov	r2, #8
33f8137c:	eaffffc6 	b	33f8129c <simple_strtoull+0x4c>
33f81380:	e5d07000 	ldrb	r7, [r0]
33f81384:	e3570030 	cmp	r7, #48	; 0x30
33f81388:	0a000012 	beq	33f813d8 <simple_strtoull+0x188>
33f8138c:	e59f9078 	ldr	r9, [pc, #120]	; 33f8140c <simple_strtoull+0x1bc>
33f81390:	e1a0a007 	mov	sl, r7
33f81394:	e7d96007 	ldrb	r6, [r9, r7]
33f81398:	eaffffbf 	b	33f8129c <simple_strtoull+0x4c>
33f8139c:	e5d02001 	ldrb	r2, [r0, #1]
33f813a0:	e2801001 	add	r1, r0, #1
33f813a4:	e7d93002 	ldrb	r3, [r9, r2]
33f813a8:	e3130044 	tst	r3, #68	; 0x44
33f813ac:	0afffff1 	beq	33f81378 <simple_strtoull+0x128>
33f813b0:	e1a0a002 	mov	sl, r2
33f813b4:	e1a06003 	mov	r6, r3
33f813b8:	e1a07002 	mov	r7, r2
33f813bc:	e1a00001 	mov	r0, r1
33f813c0:	e3a04010 	mov	r4, #16
33f813c4:	e3a05000 	mov	r5, #0
33f813c8:	eaffffb7 	b	33f812ac <simple_strtoull+0x5c>
33f813cc:	e3a02000 	mov	r2, #0
33f813d0:	e3a03000 	mov	r3, #0
33f813d4:	eaffffd5 	b	33f81330 <simple_strtoull+0xe0>
33f813d8:	e5d03001 	ldrb	r3, [r0, #1]
33f813dc:	e59f9028 	ldr	r9, [pc, #40]	; 33f8140c <simple_strtoull+0x1bc>
33f813e0:	e7d91003 	ldrb	r1, [r9, r3]
33f813e4:	e3110002 	tst	r1, #2
33f813e8:	12433020 	subne	r3, r3, #32
33f813ec:	16ef3073 	uxtbne	r3, r3
33f813f0:	e3530058 	cmp	r3, #88	; 0x58
33f813f4:	05f07002 	ldrbeq	r7, [r0, #2]!
33f813f8:	15d96030 	ldrbne	r6, [r9, #48]	; 0x30
33f813fc:	13a0a030 	movne	sl, #48	; 0x30
33f81400:	01a0a007 	moveq	sl, r7
33f81404:	07d96007 	ldrbeq	r6, [r9, r7]
33f81408:	eaffffa3 	b	33f8129c <simple_strtoull+0x4c>
33f8140c:	33f82bd8 	mvnscc	r2, #221184	; 0x36000

33f81410 <simple_strtoll>:
33f81410:	e92d4010 	push	{r4, lr}
33f81414:	e5d0c000 	ldrb	ip, [r0]
33f81418:	e35c002d 	cmp	ip, #45	; 0x2d
33f8141c:	0a000001 	beq	33f81428 <simple_strtoll+0x18>
33f81420:	e8bd4010 	pop	{r4, lr}
33f81424:	eaffff89 	b	33f81250 <simple_strtoull>
33f81428:	e2800001 	add	r0, r0, #1
33f8142c:	ebffff87 	bl	33f81250 <simple_strtoull>
33f81430:	e2702000 	rsbs	r2, r0, #0
33f81434:	e2e13000 	rsc	r3, r1, #0
33f81438:	e1a00002 	mov	r0, r2
33f8143c:	e1a01003 	mov	r1, r3
33f81440:	e8bd8010 	pop	{r4, pc}

33f81444 <vsnprintf>:
33f81444:	e92d4ff0 	push	{r4, r5, r6, r7, r8, r9, sl, fp, lr}
33f81448:	e3510000 	cmp	r1, #0
33f8144c:	e24dd01c 	sub	sp, sp, #28
33f81450:	e58d1010 	str	r1, [sp, #16]
33f81454:	e1a0b000 	mov	fp, r0
33f81458:	e1a04002 	mov	r4, r2
33f8145c:	e1a09003 	mov	r9, r3
33f81460:	ba000193 	blt	33f81ab4 <vsnprintf+0x670>
33f81464:	e59d1010 	ldr	r1, [sp, #16]
33f81468:	e2403001 	sub	r3, r0, #1
33f8146c:	e2417001 	sub	r7, r1, #1
33f81470:	e0807007 	add	r7, r0, r7
33f81474:	e1570003 	cmp	r7, r3
33f81478:	32602000 	rsbcc	r2, r0, #0
33f8147c:	358d2010 	strcc	r2, [sp, #16]
33f81480:	e5d40000 	ldrb	r0, [r4]
33f81484:	33e07000 	mvncc	r7, #0
33f81488:	e3500000 	cmp	r0, #0
33f8148c:	01a0a00b 	moveq	sl, fp
33f81490:	0a00000e 	beq	33f814d0 <vsnprintf+0x8c>
33f81494:	e59f8628 	ldr	r8, [pc, #1576]	; 33f81ac4 <vsnprintf+0x680>
33f81498:	e1a0a00b 	mov	sl, fp
33f8149c:	e58db014 	str	fp, [sp, #20]
33f814a0:	e3500025 	cmp	r0, #37	; 0x25
33f814a4:	02843001 	addeq	r3, r4, #1
33f814a8:	03a06000 	moveq	r6, #0
33f814ac:	0a000012 	beq	33f814fc <vsnprintf+0xb8>
33f814b0:	e15a0007 	cmp	sl, r7
33f814b4:	95ca0000 	strbls	r0, [sl]
33f814b8:	e28aa001 	add	sl, sl, #1
33f814bc:	e5f40001 	ldrb	r0, [r4, #1]!
33f814c0:	e3500000 	cmp	r0, #0
33f814c4:	1afffff5 	bne	33f814a0 <vsnprintf+0x5c>
33f814c8:	e59db014 	ldr	fp, [sp, #20]
33f814cc:	e06b000a 	rsb	r0, fp, sl
33f814d0:	e15a0007 	cmp	sl, r7
33f814d4:	93a03000 	movls	r3, #0
33f814d8:	95ca3000 	strbls	r3, [sl]
33f814dc:	9a000003 	bls	33f814f0 <vsnprintf+0xac>
33f814e0:	e59d1010 	ldr	r1, [sp, #16]
33f814e4:	e3510000 	cmp	r1, #0
33f814e8:	13a03000 	movne	r3, #0
33f814ec:	15c73000 	strbne	r3, [r7]
33f814f0:	e28dd01c 	add	sp, sp, #28
33f814f4:	e8bd8ff0 	pop	{r4, r5, r6, r7, r8, r9, sl, fp, pc}
33f814f8:	e3866020 	orr	r6, r6, #32
33f814fc:	e1a04003 	mov	r4, r3
33f81500:	e4d32001 	ldrb	r2, [r3], #1
33f81504:	e2421020 	sub	r1, r2, #32
33f81508:	e3510010 	cmp	r1, #16
33f8150c:	979ff101 	ldrls	pc, [pc, r1, lsl #2]
33f81510:	ea000018 	b	33f81578 <vsnprintf+0x134>
33f81514:	33f81570 	mvnscc	r1, #469762048	; 0x1c000000
33f81518:	33f81578 	mvnscc	r1, #503316480	; 0x1e000000
33f8151c:	33f81578 	mvnscc	r1, #503316480	; 0x1e000000
33f81520:	33f814f8 	mvnscc	r1, #-134217728	; 0xf8000000
33f81524:	33f81578 	mvnscc	r1, #503316480	; 0x1e000000
33f81528:	33f81578 	mvnscc	r1, #503316480	; 0x1e000000
33f8152c:	33f81578 	mvnscc	r1, #503316480	; 0x1e000000
33f81530:	33f81578 	mvnscc	r1, #503316480	; 0x1e000000
33f81534:	33f81578 	mvnscc	r1, #503316480	; 0x1e000000
33f81538:	33f81578 	mvnscc	r1, #503316480	; 0x1e000000
33f8153c:	33f81578 	mvnscc	r1, #503316480	; 0x1e000000
33f81540:	33f81568 	mvnscc	r1, #436207616	; 0x1a000000
33f81544:	33f81578 	mvnscc	r1, #503316480	; 0x1e000000
33f81548:	33f81560 	mvnscc	r1, #402653184	; 0x18000000
33f8154c:	33f81578 	mvnscc	r1, #503316480	; 0x1e000000
33f81550:	33f81578 	mvnscc	r1, #503316480	; 0x1e000000
33f81554:	33f81558 	mvnscc	r1, #369098752	; 0x16000000
33f81558:	e3866001 	orr	r6, r6, #1
33f8155c:	eaffffe6 	b	33f814fc <vsnprintf+0xb8>
33f81560:	e3866010 	orr	r6, r6, #16
33f81564:	eaffffe4 	b	33f814fc <vsnprintf+0xb8>
33f81568:	e3866004 	orr	r6, r6, #4
33f8156c:	eaffffe2 	b	33f814fc <vsnprintf+0xb8>
33f81570:	e3866008 	orr	r6, r6, #8
33f81574:	eaffffe0 	b	33f814fc <vsnprintf+0xb8>
33f81578:	e7d83002 	ldrb	r3, [r8, r2]
33f8157c:	e3130004 	tst	r3, #4
33f81580:	0a000078 	beq	33f81768 <vsnprintf+0x324>
33f81584:	e2843001 	add	r3, r4, #1
33f81588:	e3a05000 	mov	r5, #0
33f8158c:	e2420030 	sub	r0, r2, #48	; 0x30
33f81590:	e1a04003 	mov	r4, r3
33f81594:	e4d32001 	ldrb	r2, [r3], #1
33f81598:	e0855105 	add	r5, r5, r5, lsl #2
33f8159c:	e7d81002 	ldrb	r1, [r8, r2]
33f815a0:	e0805085 	add	r5, r0, r5, lsl #1
33f815a4:	e3110004 	tst	r1, #4
33f815a8:	1afffff7 	bne	33f8158c <vsnprintf+0x148>
33f815ac:	e352002e 	cmp	r2, #46	; 0x2e
33f815b0:	13e0c000 	mvnne	ip, #0
33f815b4:	0a000077 	beq	33f81798 <vsnprintf+0x354>
33f815b8:	e3520068 	cmp	r2, #104	; 0x68
33f815bc:	1352006c 	cmpne	r2, #108	; 0x6c
33f815c0:	0a00005e 	beq	33f81740 <vsnprintf+0x2fc>
33f815c4:	e352004c 	cmp	r2, #76	; 0x4c
33f815c8:	0a000088 	beq	33f817f0 <vsnprintf+0x3ac>
33f815cc:	e352005a 	cmp	r2, #90	; 0x5a
33f815d0:	0a000086 	beq	33f817f0 <vsnprintf+0x3ac>
33f815d4:	e352007a 	cmp	r2, #122	; 0x7a
33f815d8:	13e03000 	mvnne	r3, #0
33f815dc:	0a000083 	beq	33f817f0 <vsnprintf+0x3ac>
33f815e0:	e2421025 	sub	r1, r2, #37	; 0x25
33f815e4:	e3510053 	cmp	r1, #83	; 0x53
33f815e8:	979ff101 	ldrls	pc, [pc, r1, lsl #2]
33f815ec:	ea0000e8 	b	33f81994 <vsnprintf+0x550>
33f815f0:	33f81984 	mvnscc	r1, #2162688	; 0x210000
33f815f4:	33f81994 	mvnscc	r1, #2424832	; 0x250000
33f815f8:	33f81994 	mvnscc	r1, #2424832	; 0x250000
33f815fc:	33f81994 	mvnscc	r1, #2424832	; 0x250000
33f81600:	33f81994 	mvnscc	r1, #2424832	; 0x250000
33f81604:	33f81994 	mvnscc	r1, #2424832	; 0x250000
33f81608:	33f81994 	mvnscc	r1, #2424832	; 0x250000
33f8160c:	33f81994 	mvnscc	r1, #2424832	; 0x250000
33f81610:	33f81994 	mvnscc	r1, #2424832	; 0x250000
33f81614:	33f81994 	mvnscc	r1, #2424832	; 0x250000
33f81618:	33f81994 	mvnscc	r1, #2424832	; 0x250000
33f8161c:	33f81994 	mvnscc	r1, #2424832	; 0x250000
33f81620:	33f81994 	mvnscc	r1, #2424832	; 0x250000
33f81624:	33f81994 	mvnscc	r1, #2424832	; 0x250000
33f81628:	33f81994 	mvnscc	r1, #2424832	; 0x250000
33f8162c:	33f81994 	mvnscc	r1, #2424832	; 0x250000
33f81630:	33f81994 	mvnscc	r1, #2424832	; 0x250000
33f81634:	33f81994 	mvnscc	r1, #2424832	; 0x250000
33f81638:	33f81994 	mvnscc	r1, #2424832	; 0x250000
33f8163c:	33f81994 	mvnscc	r1, #2424832	; 0x250000
33f81640:	33f81994 	mvnscc	r1, #2424832	; 0x250000
33f81644:	33f81994 	mvnscc	r1, #2424832	; 0x250000
33f81648:	33f81994 	mvnscc	r1, #2424832	; 0x250000
33f8164c:	33f81994 	mvnscc	r1, #2424832	; 0x250000
33f81650:	33f81994 	mvnscc	r1, #2424832	; 0x250000
33f81654:	33f81994 	mvnscc	r1, #2424832	; 0x250000
33f81658:	33f81994 	mvnscc	r1, #2424832	; 0x250000
33f8165c:	33f81994 	mvnscc	r1, #2424832	; 0x250000
33f81660:	33f81994 	mvnscc	r1, #2424832	; 0x250000
33f81664:	33f81994 	mvnscc	r1, #2424832	; 0x250000
33f81668:	33f81994 	mvnscc	r1, #2424832	; 0x250000
33f8166c:	33f81994 	mvnscc	r1, #2424832	; 0x250000
33f81670:	33f81994 	mvnscc	r1, #2424832	; 0x250000
33f81674:	33f81994 	mvnscc	r1, #2424832	; 0x250000
33f81678:	33f81994 	mvnscc	r1, #2424832	; 0x250000
33f8167c:	33f81994 	mvnscc	r1, #2424832	; 0x250000
33f81680:	33f81994 	mvnscc	r1, #2424832	; 0x250000
33f81684:	33f81994 	mvnscc	r1, #2424832	; 0x250000
33f81688:	33f81994 	mvnscc	r1, #2424832	; 0x250000
33f8168c:	33f81994 	mvnscc	r1, #2424832	; 0x250000
33f81690:	33f81994 	mvnscc	r1, #2424832	; 0x250000
33f81694:	33f81994 	mvnscc	r1, #2424832	; 0x250000
33f81698:	33f81994 	mvnscc	r1, #2424832	; 0x250000
33f8169c:	33f81994 	mvnscc	r1, #2424832	; 0x250000
33f816a0:	33f81994 	mvnscc	r1, #2424832	; 0x250000
33f816a4:	33f81994 	mvnscc	r1, #2424832	; 0x250000
33f816a8:	33f81994 	mvnscc	r1, #2424832	; 0x250000
33f816ac:	33f81994 	mvnscc	r1, #2424832	; 0x250000
33f816b0:	33f81994 	mvnscc	r1, #2424832	; 0x250000
33f816b4:	33f81994 	mvnscc	r1, #2424832	; 0x250000
33f816b8:	33f81994 	mvnscc	r1, #2424832	; 0x250000
33f816bc:	33f81a68 	mvnscc	r1, #425984	; 0x68000
33f816c0:	33f81994 	mvnscc	r1, #2424832	; 0x250000
33f816c4:	33f81994 	mvnscc	r1, #2424832	; 0x250000
33f816c8:	33f81994 	mvnscc	r1, #2424832	; 0x250000
33f816cc:	33f81994 	mvnscc	r1, #2424832	; 0x250000
33f816d0:	33f81994 	mvnscc	r1, #2424832	; 0x250000
33f816d4:	33f81994 	mvnscc	r1, #2424832	; 0x250000
33f816d8:	33f81994 	mvnscc	r1, #2424832	; 0x250000
33f816dc:	33f81994 	mvnscc	r1, #2424832	; 0x250000
33f816e0:	33f81994 	mvnscc	r1, #2424832	; 0x250000
33f816e4:	33f81994 	mvnscc	r1, #2424832	; 0x250000
33f816e8:	33f819e0 	mvnscc	r1, #3670016	; 0x380000
33f816ec:	33f819d4 	mvnscc	r1, #3473408	; 0x350000
33f816f0:	33f81994 	mvnscc	r1, #2424832	; 0x250000
33f816f4:	33f81994 	mvnscc	r1, #2424832	; 0x250000
33f816f8:	33f81994 	mvnscc	r1, #2424832	; 0x250000
33f816fc:	33f81994 	mvnscc	r1, #2424832	; 0x250000
33f81700:	33f819d4 	mvnscc	r1, #3473408	; 0x350000
33f81704:	33f81994 	mvnscc	r1, #2424832	; 0x250000
33f81708:	33f81994 	mvnscc	r1, #2424832	; 0x250000
33f8170c:	33f81994 	mvnscc	r1, #2424832	; 0x250000
33f81710:	33f81994 	mvnscc	r1, #2424832	; 0x250000
33f81714:	33f819c0 	mvnscc	r1, #3145728	; 0x300000
33f81718:	33f81968 	mvnscc	r1, #1703936	; 0x1a0000
33f8171c:	33f81944 	mvnscc	r1, #1114112	; 0x110000
33f81720:	33f81994 	mvnscc	r1, #2424832	; 0x250000
33f81724:	33f81994 	mvnscc	r1, #2424832	; 0x250000
33f81728:	33f8186c 	mvnscc	r1, #7077888	; 0x6c0000
33f8172c:	33f81994 	mvnscc	r1, #2424832	; 0x250000
33f81730:	33f81824 	mvnscc	r1, #2359296	; 0x240000
33f81734:	33f81994 	mvnscc	r1, #2424832	; 0x250000
33f81738:	33f81994 	mvnscc	r1, #2424832	; 0x250000
33f8173c:	33f8197c 	mvnscc	r1, #2031616	; 0x1f0000
33f81740:	e352006c 	cmp	r2, #108	; 0x6c
33f81744:	e2844001 	add	r4, r4, #1
33f81748:	e1a03002 	mov	r3, r2
33f8174c:	15d42000 	ldrbne	r2, [r4]
33f81750:	1affffa2 	bne	33f815e0 <vsnprintf+0x19c>
33f81754:	e5d42000 	ldrb	r2, [r4]
33f81758:	e352006c 	cmp	r2, #108	; 0x6c
33f8175c:	05f42001 	ldrbeq	r2, [r4, #1]!
33f81760:	03a0304c 	moveq	r3, #76	; 0x4c
33f81764:	eaffff9d 	b	33f815e0 <vsnprintf+0x19c>
33f81768:	e352002a 	cmp	r2, #42	; 0x2a
33f8176c:	13e05000 	mvnne	r5, #0
33f81770:	1affff8d 	bne	33f815ac <vsnprintf+0x168>
33f81774:	e4995004 	ldr	r5, [r9], #4
33f81778:	e2844001 	add	r4, r4, #1
33f8177c:	e5d42000 	ldrb	r2, [r4]
33f81780:	e3550000 	cmp	r5, #0
33f81784:	b2655000 	rsblt	r5, r5, #0
33f81788:	b3866010 	orrlt	r6, r6, #16
33f8178c:	e352002e 	cmp	r2, #46	; 0x2e
33f81790:	13e0c000 	mvnne	ip, #0
33f81794:	1affff87 	bne	33f815b8 <vsnprintf+0x174>
33f81798:	e5d43001 	ldrb	r3, [r4, #1]
33f8179c:	e2841001 	add	r1, r4, #1
33f817a0:	e7d8c003 	ldrb	ip, [r8, r3]
33f817a4:	e1a02003 	mov	r2, r3
33f817a8:	e21cc004 	ands	ip, ip, #4
33f817ac:	0a000012 	beq	33f817fc <vsnprintf+0x3b8>
33f817b0:	e2842002 	add	r2, r4, #2
33f817b4:	e3a0c000 	mov	ip, #0
33f817b8:	e1a04002 	mov	r4, r2
33f817bc:	e4d20001 	ldrb	r0, [r2], #1
33f817c0:	e2431030 	sub	r1, r3, #48	; 0x30
33f817c4:	e1a03000 	mov	r3, r0
33f817c8:	e7d80000 	ldrb	r0, [r8, r0]
33f817cc:	e08cc10c 	add	ip, ip, ip, lsl #2
33f817d0:	e3100004 	tst	r0, #4
33f817d4:	e081c08c 	add	ip, r1, ip, lsl #1
33f817d8:	1afffff6 	bne	33f817b8 <vsnprintf+0x374>
33f817dc:	e35c0000 	cmp	ip, #0
33f817e0:	b5d42000 	ldrblt	r2, [r4]
33f817e4:	b3a0c000 	movlt	ip, #0
33f817e8:	a5d42000 	ldrbge	r2, [r4]
33f817ec:	eaffff71 	b	33f815b8 <vsnprintf+0x174>
33f817f0:	e1a03002 	mov	r3, r2
33f817f4:	e5f42001 	ldrb	r2, [r4, #1]!
33f817f8:	eaffff78 	b	33f815e0 <vsnprintf+0x19c>
33f817fc:	e353002a 	cmp	r3, #42	; 0x2a
33f81800:	11a04001 	movne	r4, r1
33f81804:	1affff6b 	bne	33f815b8 <vsnprintf+0x174>
33f81808:	e499c004 	ldr	ip, [r9], #4
33f8180c:	e2814001 	add	r4, r1, #1
33f81810:	e35c0000 	cmp	ip, #0
33f81814:	b5d42000 	ldrblt	r2, [r4]
33f81818:	b3a0c000 	movlt	ip, #0
33f8181c:	a5d42000 	ldrbge	r2, [r4]
33f81820:	eaffff64 	b	33f815b8 <vsnprintf+0x174>
33f81824:	e3a0e00a 	mov	lr, #10
33f81828:	e353004c 	cmp	r3, #76	; 0x4c
33f8182c:	0a000050 	beq	33f81974 <vsnprintf+0x530>
33f81830:	e353006c 	cmp	r3, #108	; 0x6c
33f81834:	0a000090 	beq	33f81a7c <vsnprintf+0x638>
33f81838:	e353005a 	cmp	r3, #90	; 0x5a
33f8183c:	1353007a 	cmpne	r3, #122	; 0x7a
33f81840:	1a00008b 	bne	33f81a74 <vsnprintf+0x630>
33f81844:	e4992004 	ldr	r2, [r9], #4
33f81848:	e3a03000 	mov	r3, #0
33f8184c:	e1a0000a 	mov	r0, sl
33f81850:	e1a01007 	mov	r1, r7
33f81854:	e58de000 	str	lr, [sp]
33f81858:	e98d1020 	stmib	sp, {r5, ip}
33f8185c:	e58d600c 	str	r6, [sp, #12]
33f81860:	ebfffd5a 	bl	33f80dd0 <number>
33f81864:	e1a0a000 	mov	sl, r0
33f81868:	eaffff13 	b	33f814bc <vsnprintf+0x78>
33f8186c:	e499b004 	ldr	fp, [r9], #4
33f81870:	e59f3250 	ldr	r3, [pc, #592]	; 33f81ac8 <vsnprintf+0x684>
33f81874:	e59f2250 	ldr	r2, [pc, #592]	; 33f81acc <vsnprintf+0x688>
33f81878:	e15b0003 	cmp	fp, r3
33f8187c:	91a0b002 	movls	fp, r2
33f81880:	e1a0100c 	mov	r1, ip
33f81884:	e1a0000b 	mov	r0, fp
33f81888:	ebfffc2b 	bl	33f8093c <strnlen>
33f8188c:	e2166010 	ands	r6, r6, #16
33f81890:	1a000012 	bne	33f818e0 <vsnprintf+0x49c>
33f81894:	e1550000 	cmp	r5, r0
33f81898:	e2452001 	sub	r2, r5, #1
33f8189c:	d1a05002 	movle	r5, r2
33f818a0:	da00000e 	ble	33f818e0 <vsnprintf+0x49c>
33f818a4:	e1a01005 	mov	r1, r5
33f818a8:	e08a3006 	add	r3, sl, r6
33f818ac:	e1570003 	cmp	r7, r3
33f818b0:	23a03020 	movcs	r3, #32
33f818b4:	27ca3006 	strbcs	r3, [sl, r6]
33f818b8:	e2866001 	add	r6, r6, #1
33f818bc:	e0663005 	rsb	r3, r6, r5
33f818c0:	e1500003 	cmp	r0, r3
33f818c4:	bafffff7 	blt	33f818a8 <vsnprintf+0x464>
33f818c8:	e2653001 	rsb	r3, r5, #1
33f818cc:	e2422001 	sub	r2, r2, #1
33f818d0:	e0833000 	add	r3, r3, r0
33f818d4:	e0601001 	rsb	r1, r0, r1
33f818d8:	e0825003 	add	r5, r2, r3
33f818dc:	e08aa001 	add	sl, sl, r1
33f818e0:	e3500000 	cmp	r0, #0
33f818e4:	da000008 	ble	33f8190c <vsnprintf+0x4c8>
33f818e8:	e3a03000 	mov	r3, #0
33f818ec:	e08a2003 	add	r2, sl, r3
33f818f0:	e1570002 	cmp	r7, r2
33f818f4:	27db2003 	ldrbcs	r2, [fp, r3]
33f818f8:	27ca2003 	strbcs	r2, [sl, r3]
33f818fc:	e2833001 	add	r3, r3, #1
33f81900:	e1500003 	cmp	r0, r3
33f81904:	1afffff8 	bne	33f818ec <vsnprintf+0x4a8>
33f81908:	e08aa000 	add	sl, sl, r0
33f8190c:	e1550000 	cmp	r5, r0
33f81910:	dafffee9 	ble	33f814bc <vsnprintf+0x78>
33f81914:	e3a03000 	mov	r3, #0
33f81918:	e08a2003 	add	r2, sl, r3
33f8191c:	e1570002 	cmp	r7, r2
33f81920:	23a01020 	movcs	r1, #32
33f81924:	27ca1003 	strbcs	r1, [sl, r3]
33f81928:	e2833001 	add	r3, r3, #1
33f8192c:	e0632005 	rsb	r2, r3, r5
33f81930:	e1500002 	cmp	r0, r2
33f81934:	bafffff7 	blt	33f81918 <vsnprintf+0x4d4>
33f81938:	e0600005 	rsb	r0, r0, r5
33f8193c:	e08aa000 	add	sl, sl, r0
33f81940:	eafffedd 	b	33f814bc <vsnprintf+0x78>
33f81944:	e3750001 	cmn	r5, #1
33f81948:	03866001 	orreq	r6, r6, #1
33f8194c:	03a05008 	moveq	r5, #8
33f81950:	e4992004 	ldr	r2, [r9], #4
33f81954:	e1a0000a 	mov	r0, sl
33f81958:	e1a01007 	mov	r1, r7
33f8195c:	e3a03000 	mov	r3, #0
33f81960:	e3a0e010 	mov	lr, #16
33f81964:	eaffffba 	b	33f81854 <vsnprintf+0x410>
33f81968:	e353004c 	cmp	r3, #76	; 0x4c
33f8196c:	e3a0e008 	mov	lr, #8
33f81970:	1affffae 	bne	33f81830 <vsnprintf+0x3ec>
33f81974:	e0c920d8 	ldrd	r2, [r9], #8
33f81978:	eaffffb3 	b	33f8184c <vsnprintf+0x408>
33f8197c:	e3a0e010 	mov	lr, #16
33f81980:	eaffffa8 	b	33f81828 <vsnprintf+0x3e4>
33f81984:	e15a0007 	cmp	sl, r7
33f81988:	93a02025 	movls	r2, #37	; 0x25
33f8198c:	95ca2000 	strbls	r2, [sl]
33f81990:	eafffec8 	b	33f814b8 <vsnprintf+0x74>
33f81994:	e15a0007 	cmp	sl, r7
33f81998:	93a03025 	movls	r3, #37	; 0x25
33f8199c:	95ca3000 	strbls	r3, [sl]
33f819a0:	95d42000 	ldrbls	r2, [r4]
33f819a4:	e28aa001 	add	sl, sl, #1
33f819a8:	e3520000 	cmp	r2, #0
33f819ac:	02444001 	subeq	r4, r4, #1
33f819b0:	0afffec1 	beq	33f814bc <vsnprintf+0x78>
33f819b4:	e157000a 	cmp	r7, sl
33f819b8:	25ca2000 	strbcs	r2, [sl]
33f819bc:	eafffebd 	b	33f814b8 <vsnprintf+0x74>
33f819c0:	e59d1014 	ldr	r1, [sp, #20]
33f819c4:	e4993004 	ldr	r3, [r9], #4
33f819c8:	e061200a 	rsb	r2, r1, sl
33f819cc:	e5832000 	str	r2, [r3]
33f819d0:	eafffeb9 	b	33f814bc <vsnprintf+0x78>
33f819d4:	e3866002 	orr	r6, r6, #2
33f819d8:	e3a0e00a 	mov	lr, #10
33f819dc:	eaffff91 	b	33f81828 <vsnprintf+0x3e4>
33f819e0:	e3160010 	tst	r6, #16
33f819e4:	1a00000e 	bne	33f81a24 <vsnprintf+0x5e0>
33f819e8:	e2452001 	sub	r2, r5, #1
33f819ec:	e3520000 	cmp	r2, #0
33f819f0:	d1a05002 	movle	r5, r2
33f819f4:	da00000a 	ble	33f81a24 <vsnprintf+0x5e0>
33f819f8:	e24a3001 	sub	r3, sl, #1
33f819fc:	e0835005 	add	r5, r3, r5
33f81a00:	e1a0300a 	mov	r3, sl
33f81a04:	e1570003 	cmp	r7, r3
33f81a08:	23a01020 	movcs	r1, #32
33f81a0c:	25c31000 	strbcs	r1, [r3]
33f81a10:	e2833001 	add	r3, r3, #1
33f81a14:	e1530005 	cmp	r3, r5
33f81a18:	1afffff9 	bne	33f81a04 <vsnprintf+0x5c0>
33f81a1c:	e08aa002 	add	sl, sl, r2
33f81a20:	e3a05000 	mov	r5, #0
33f81a24:	e4993004 	ldr	r3, [r9], #4
33f81a28:	e15a0007 	cmp	sl, r7
33f81a2c:	95ca3000 	strbls	r3, [sl]
33f81a30:	e3550001 	cmp	r5, #1
33f81a34:	e28a2001 	add	r2, sl, #1
33f81a38:	da00001b 	ble	33f81aac <vsnprintf+0x668>
33f81a3c:	e08aa005 	add	sl, sl, r5
33f81a40:	e1a03002 	mov	r3, r2
33f81a44:	e1570003 	cmp	r7, r3
33f81a48:	23a01020 	movcs	r1, #32
33f81a4c:	25c31000 	strbcs	r1, [r3]
33f81a50:	e2833001 	add	r3, r3, #1
33f81a54:	e153000a 	cmp	r3, sl
33f81a58:	1afffff9 	bne	33f81a44 <vsnprintf+0x600>
33f81a5c:	e2455001 	sub	r5, r5, #1
33f81a60:	e082a005 	add	sl, r2, r5
33f81a64:	eafffe94 	b	33f814bc <vsnprintf+0x78>
33f81a68:	e3866040 	orr	r6, r6, #64	; 0x40
33f81a6c:	e3a0e010 	mov	lr, #16
33f81a70:	eaffff6c 	b	33f81828 <vsnprintf+0x3e4>
33f81a74:	e3530068 	cmp	r3, #104	; 0x68
33f81a78:	0a000004 	beq	33f81a90 <vsnprintf+0x64c>
33f81a7c:	e4992004 	ldr	r2, [r9], #4
33f81a80:	e3160002 	tst	r6, #2
33f81a84:	e3a03000 	mov	r3, #0
33f81a88:	11a03fc2 	asrne	r3, r2, #31
33f81a8c:	eaffff6e 	b	33f8184c <vsnprintf+0x408>
33f81a90:	e4992004 	ldr	r2, [r9], #4
33f81a94:	e3160002 	tst	r6, #2
33f81a98:	e6ff2072 	uxth	r2, r2
33f81a9c:	e3a03000 	mov	r3, #0
33f81aa0:	16bf2072 	sxthne	r2, r2
33f81aa4:	11a03fc2 	asrne	r3, r2, #31
33f81aa8:	eaffff67 	b	33f8184c <vsnprintf+0x408>
33f81aac:	e1a0a002 	mov	sl, r2
33f81ab0:	eafffe81 	b	33f814bc <vsnprintf+0x78>
33f81ab4:	e59f3014 	ldr	r3, [pc, #20]	; 33f81ad0 <vsnprintf+0x68c>
33f81ab8:	e3a00000 	mov	r0, #0
33f81abc:	e5830000 	str	r0, [r3]
33f81ac0:	eafffe8a 	b	33f814f0 <vsnprintf+0xac>
33f81ac4:	33f82bd8 	mvnscc	r2, #221184	; 0x36000
33f81ac8:	000003ff 	strdeq	r0, [r0], -pc
33f81acc:	33f82d8c 	mvnscc	r2, #8960	; 0x2300
33f81ad0:	33f82bd4 	mvnscc	r2, #217088	; 0x35000

33f81ad4 <vscnprintf>:
33f81ad4:	e92d4010 	push	{r4, lr}
33f81ad8:	e1a04001 	mov	r4, r1
33f81adc:	ebfffe58 	bl	33f81444 <vsnprintf>
33f81ae0:	e1540000 	cmp	r4, r0
33f81ae4:	92440001 	subls	r0, r4, #1
33f81ae8:	e8bd8010 	pop	{r4, pc}

33f81aec <snprintf>:
33f81aec:	e92d000c 	push	{r2, r3}
33f81af0:	e92d4008 	push	{r3, lr}
33f81af4:	e59d2008 	ldr	r2, [sp, #8]
33f81af8:	e28d300c 	add	r3, sp, #12
33f81afc:	ebfffe50 	bl	33f81444 <vsnprintf>
33f81b00:	e8bd4008 	pop	{r3, lr}
33f81b04:	e28dd008 	add	sp, sp, #8
33f81b08:	e12fff1e 	bx	lr

33f81b0c <scnprintf>:
33f81b0c:	e92d000c 	push	{r2, r3}
33f81b10:	e92d4010 	push	{r4, lr}
33f81b14:	e59d2008 	ldr	r2, [sp, #8]
33f81b18:	e28d300c 	add	r3, sp, #12
33f81b1c:	e1a04001 	mov	r4, r1
33f81b20:	ebfffe47 	bl	33f81444 <vsnprintf>
33f81b24:	e1540000 	cmp	r4, r0
33f81b28:	92440001 	subls	r0, r4, #1
33f81b2c:	e8bd4010 	pop	{r4, lr}
33f81b30:	e28dd008 	add	sp, sp, #8
33f81b34:	e12fff1e 	bx	lr

33f81b38 <vsprintf>:
33f81b38:	e1a0c001 	mov	ip, r1
33f81b3c:	e1a03002 	mov	r3, r2
33f81b40:	e3e01102 	mvn	r1, #-2147483648	; 0x80000000
33f81b44:	e1a0200c 	mov	r2, ip
33f81b48:	eafffe3d 	b	33f81444 <vsnprintf>

33f81b4c <sprintf>:
33f81b4c:	e92d000e 	push	{r1, r2, r3}
33f81b50:	e52de004 	push	{lr}		; (str lr, [sp, #-4]!)
33f81b54:	e59d1004 	ldr	r1, [sp, #4]
33f81b58:	e28d2008 	add	r2, sp, #8
33f81b5c:	ebfffff5 	bl	33f81b38 <vsprintf>
33f81b60:	e49de004 	pop	{lr}		; (ldr lr, [sp], #4)
33f81b64:	e28dd00c 	add	sp, sp, #12
33f81b68:	e12fff1e 	bx	lr

33f81b6c <vsscanf>:
33f81b6c:	e92d4ff0 	push	{r4, r5, r6, r7, r8, r9, sl, fp, lr}
33f81b70:	e59f56fc 	ldr	r5, [pc, #1788]	; 33f82274 <vsscanf+0x708>
33f81b74:	e1a07000 	mov	r7, r0
33f81b78:	e1a04001 	mov	r4, r1
33f81b7c:	e5d11000 	ldrb	r1, [r1]
33f81b80:	e24dd014 	sub	sp, sp, #20
33f81b84:	e3a06000 	mov	r6, #0
33f81b88:	e1a08002 	mov	r8, r2
33f81b8c:	e1a0b005 	mov	fp, r5
33f81b90:	e1a0a007 	mov	sl, r7
33f81b94:	e3510000 	cmp	r1, #0
33f81b98:	0a00001d 	beq	33f81c14 <vsscanf+0xa8>
33f81b9c:	e5d0c000 	ldrb	ip, [r0]
33f81ba0:	e35c0000 	cmp	ip, #0
33f81ba4:	0a00001a 	beq	33f81c14 <vsscanf+0xa8>
33f81ba8:	e7d53001 	ldrb	r3, [r5, r1]
33f81bac:	e3130020 	tst	r3, #32
33f81bb0:	0a00000f 	beq	33f81bf4 <vsscanf+0x88>
33f81bb4:	e2843001 	add	r3, r4, #1
33f81bb8:	e5d31000 	ldrb	r1, [r3]
33f81bbc:	e1a04003 	mov	r4, r3
33f81bc0:	e7d52001 	ldrb	r2, [r5, r1]
33f81bc4:	e2833001 	add	r3, r3, #1
33f81bc8:	e3120020 	tst	r2, #32
33f81bcc:	1afffff9 	bne	33f81bb8 <vsscanf+0x4c>
33f81bd0:	e7db300c 	ldrb	r3, [fp, ip]
33f81bd4:	e3130020 	tst	r3, #32
33f81bd8:	0a000005 	beq	33f81bf4 <vsscanf+0x88>
33f81bdc:	e2803001 	add	r3, r0, #1
33f81be0:	e1a00003 	mov	r0, r3
33f81be4:	e4d32001 	ldrb	r2, [r3], #1
33f81be8:	e7d52002 	ldrb	r2, [r5, r2]
33f81bec:	e3120020 	tst	r2, #32
33f81bf0:	1afffffa 	bne	33f81be0 <vsscanf+0x74>
33f81bf4:	e3510000 	cmp	r1, #0
33f81bf8:	13510025 	cmpne	r1, #37	; 0x25
33f81bfc:	03a02000 	moveq	r2, #0
33f81c00:	13a02001 	movne	r2, #1
33f81c04:	0a000005 	beq	33f81c20 <vsscanf+0xb4>
33f81c08:	e5d03000 	ldrb	r3, [r0]
33f81c0c:	e1530001 	cmp	r3, r1
33f81c10:	0a000082 	beq	33f81e20 <vsscanf+0x2b4>
33f81c14:	e1a00006 	mov	r0, r6
33f81c18:	e28dd014 	add	sp, sp, #20
33f81c1c:	e8bd8ff0 	pop	{r4, r5, r6, r7, r8, r9, sl, fp, pc}
33f81c20:	e3510000 	cmp	r1, #0
33f81c24:	0afffffa 	beq	33f81c14 <vsscanf+0xa8>
33f81c28:	e5d41001 	ldrb	r1, [r4, #1]
33f81c2c:	e2847001 	add	r7, r4, #1
33f81c30:	e351002a 	cmp	r1, #42	; 0x2a
33f81c34:	0a00007c 	beq	33f81e2c <vsscanf+0x2c0>
33f81c38:	e7d53001 	ldrb	r3, [r5, r1]
33f81c3c:	e3130004 	tst	r3, #4
33f81c40:	03e02000 	mvneq	r2, #0
33f81c44:	0a000008 	beq	33f81c6c <vsscanf+0x100>
33f81c48:	e2844002 	add	r4, r4, #2
33f81c4c:	e241c030 	sub	ip, r1, #48	; 0x30
33f81c50:	e1a07004 	mov	r7, r4
33f81c54:	e4d41001 	ldrb	r1, [r4], #1
33f81c58:	e0822102 	add	r2, r2, r2, lsl #2
33f81c5c:	e7d53001 	ldrb	r3, [r5, r1]
33f81c60:	e08c2082 	add	r2, ip, r2, lsl #1
33f81c64:	e3130004 	tst	r3, #4
33f81c68:	1afffff7 	bne	33f81c4c <vsscanf+0xe0>
33f81c6c:	e3510068 	cmp	r1, #104	; 0x68
33f81c70:	1351006c 	cmpne	r1, #108	; 0x6c
33f81c74:	1a000061 	bne	33f81e00 <vsscanf+0x294>
33f81c78:	e1a0c001 	mov	ip, r1
33f81c7c:	e5f71001 	ldrb	r1, [r7, #1]!
33f81c80:	e15c0001 	cmp	ip, r1
33f81c84:	0a000172 	beq	33f82254 <vsscanf+0x6e8>
33f81c88:	e3510000 	cmp	r1, #0
33f81c8c:	0affffe0 	beq	33f81c14 <vsscanf+0xa8>
33f81c90:	e5d03000 	ldrb	r3, [r0]
33f81c94:	e3530000 	cmp	r3, #0
33f81c98:	0affffdd 	beq	33f81c14 <vsscanf+0xa8>
33f81c9c:	e2411025 	sub	r1, r1, #37	; 0x25
33f81ca0:	e2874001 	add	r4, r7, #1
33f81ca4:	e3510053 	cmp	r1, #83	; 0x53
33f81ca8:	979ff101 	ldrls	pc, [pc, r1, lsl #2]
33f81cac:	eaffffd8 	b	33f81c14 <vsscanf+0xa8>
33f81cb0:	33f81ea0 	mvnscc	r1, #2560	; 0xa00
33f81cb4:	33f81c14 	mvnscc	r1, #5120	; 0x1400
33f81cb8:	33f81c14 	mvnscc	r1, #5120	; 0x1400
33f81cbc:	33f81c14 	mvnscc	r1, #5120	; 0x1400
33f81cc0:	33f81c14 	mvnscc	r1, #5120	; 0x1400
33f81cc4:	33f81c14 	mvnscc	r1, #5120	; 0x1400
33f81cc8:	33f81c14 	mvnscc	r1, #5120	; 0x1400
33f81ccc:	33f81c14 	mvnscc	r1, #5120	; 0x1400
33f81cd0:	33f81c14 	mvnscc	r1, #5120	; 0x1400
33f81cd4:	33f81c14 	mvnscc	r1, #5120	; 0x1400
33f81cd8:	33f81c14 	mvnscc	r1, #5120	; 0x1400
33f81cdc:	33f81c14 	mvnscc	r1, #5120	; 0x1400
33f81ce0:	33f81c14 	mvnscc	r1, #5120	; 0x1400
33f81ce4:	33f81c14 	mvnscc	r1, #5120	; 0x1400
33f81ce8:	33f81c14 	mvnscc	r1, #5120	; 0x1400
33f81cec:	33f81c14 	mvnscc	r1, #5120	; 0x1400
33f81cf0:	33f81c14 	mvnscc	r1, #5120	; 0x1400
33f81cf4:	33f81c14 	mvnscc	r1, #5120	; 0x1400
33f81cf8:	33f81c14 	mvnscc	r1, #5120	; 0x1400
33f81cfc:	33f81c14 	mvnscc	r1, #5120	; 0x1400
33f81d00:	33f81c14 	mvnscc	r1, #5120	; 0x1400
33f81d04:	33f81c14 	mvnscc	r1, #5120	; 0x1400
33f81d08:	33f81c14 	mvnscc	r1, #5120	; 0x1400
33f81d0c:	33f81c14 	mvnscc	r1, #5120	; 0x1400
33f81d10:	33f81c14 	mvnscc	r1, #5120	; 0x1400
33f81d14:	33f81c14 	mvnscc	r1, #5120	; 0x1400
33f81d18:	33f81c14 	mvnscc	r1, #5120	; 0x1400
33f81d1c:	33f81c14 	mvnscc	r1, #5120	; 0x1400
33f81d20:	33f81c14 	mvnscc	r1, #5120	; 0x1400
33f81d24:	33f81c14 	mvnscc	r1, #5120	; 0x1400
33f81d28:	33f81c14 	mvnscc	r1, #5120	; 0x1400
33f81d2c:	33f81c14 	mvnscc	r1, #5120	; 0x1400
33f81d30:	33f81c14 	mvnscc	r1, #5120	; 0x1400
33f81d34:	33f81c14 	mvnscc	r1, #5120	; 0x1400
33f81d38:	33f81c14 	mvnscc	r1, #5120	; 0x1400
33f81d3c:	33f81c14 	mvnscc	r1, #5120	; 0x1400
33f81d40:	33f81c14 	mvnscc	r1, #5120	; 0x1400
33f81d44:	33f81c14 	mvnscc	r1, #5120	; 0x1400
33f81d48:	33f81c14 	mvnscc	r1, #5120	; 0x1400
33f81d4c:	33f81c14 	mvnscc	r1, #5120	; 0x1400
33f81d50:	33f81c14 	mvnscc	r1, #5120	; 0x1400
33f81d54:	33f81c14 	mvnscc	r1, #5120	; 0x1400
33f81d58:	33f81c14 	mvnscc	r1, #5120	; 0x1400
33f81d5c:	33f81c14 	mvnscc	r1, #5120	; 0x1400
33f81d60:	33f81c14 	mvnscc	r1, #5120	; 0x1400
33f81d64:	33f81c14 	mvnscc	r1, #5120	; 0x1400
33f81d68:	33f81c14 	mvnscc	r1, #5120	; 0x1400
33f81d6c:	33f81c14 	mvnscc	r1, #5120	; 0x1400
33f81d70:	33f81c14 	mvnscc	r1, #5120	; 0x1400
33f81d74:	33f81c14 	mvnscc	r1, #5120	; 0x1400
33f81d78:	33f81c14 	mvnscc	r1, #5120	; 0x1400
33f81d7c:	33f81eb4 	mvnscc	r1, #2880	; 0xb40
33f81d80:	33f81c14 	mvnscc	r1, #5120	; 0x1400
33f81d84:	33f81c14 	mvnscc	r1, #5120	; 0x1400
33f81d88:	33f81c14 	mvnscc	r1, #5120	; 0x1400
33f81d8c:	33f81c14 	mvnscc	r1, #5120	; 0x1400
33f81d90:	33f81c14 	mvnscc	r1, #5120	; 0x1400
33f81d94:	33f81c14 	mvnscc	r1, #5120	; 0x1400
33f81d98:	33f81c14 	mvnscc	r1, #5120	; 0x1400
33f81d9c:	33f81c14 	mvnscc	r1, #5120	; 0x1400
33f81da0:	33f81c14 	mvnscc	r1, #5120	; 0x1400
33f81da4:	33f81c14 	mvnscc	r1, #5120	; 0x1400
33f81da8:	33f82054 	mvnscc	r2, #84	; 0x54
33f81dac:	33f82090 	mvnscc	r2, #144	; 0x90
33f81db0:	33f81c14 	mvnscc	r1, #5120	; 0x1400
33f81db4:	33f81c14 	mvnscc	r1, #5120	; 0x1400
33f81db8:	33f81c14 	mvnscc	r1, #5120	; 0x1400
33f81dbc:	33f81c14 	mvnscc	r1, #5120	; 0x1400
33f81dc0:	33f8215c 	mvnscc	r2, #23
33f81dc4:	33f81c14 	mvnscc	r1, #5120	; 0x1400
33f81dc8:	33f81c14 	mvnscc	r1, #5120	; 0x1400
33f81dcc:	33f81c14 	mvnscc	r1, #5120	; 0x1400
33f81dd0:	33f81c14 	mvnscc	r1, #5120	; 0x1400
33f81dd4:	33f820a0 	mvnscc	r2, #160	; 0xa0
33f81dd8:	33f820b4 	mvnscc	r2, #180	; 0xb4
33f81ddc:	33f81c14 	mvnscc	r1, #5120	; 0x1400
33f81de0:	33f81c14 	mvnscc	r1, #5120	; 0x1400
33f81de4:	33f81c14 	mvnscc	r1, #5120	; 0x1400
33f81de8:	33f820c4 	mvnscc	r2, #196	; 0xc4
33f81dec:	33f81c14 	mvnscc	r1, #5120	; 0x1400
33f81df0:	33f8214c 	mvnscc	r2, #19
33f81df4:	33f81c14 	mvnscc	r1, #5120	; 0x1400
33f81df8:	33f81c14 	mvnscc	r1, #5120	; 0x1400
33f81dfc:	33f81eb4 	mvnscc	r1, #2880	; 0xb40
33f81e00:	e351004c 	cmp	r1, #76	; 0x4c
33f81e04:	0affff9b 	beq	33f81c78 <vsscanf+0x10c>
33f81e08:	e351005a 	cmp	r1, #90	; 0x5a
33f81e0c:	0affff99 	beq	33f81c78 <vsscanf+0x10c>
33f81e10:	e351007a 	cmp	r1, #122	; 0x7a
33f81e14:	13e0c000 	mvnne	ip, #0
33f81e18:	1affff9a 	bne	33f81c88 <vsscanf+0x11c>
33f81e1c:	eaffff95 	b	33f81c78 <vsscanf+0x10c>
33f81e20:	e2800001 	add	r0, r0, #1
33f81e24:	e5f41001 	ldrb	r1, [r4, #1]!
33f81e28:	eaffff59 	b	33f81b94 <vsscanf+0x28>
33f81e2c:	e5d5302a 	ldrb	r3, [r5, #42]	; 0x2a
33f81e30:	e3130020 	tst	r3, #32
33f81e34:	11a04007 	movne	r4, r7
33f81e38:	1a000008 	bne	33f81e60 <vsscanf+0x2f4>
33f81e3c:	e2843002 	add	r3, r4, #2
33f81e40:	ea000001 	b	33f81e4c <vsscanf+0x2e0>
33f81e44:	e3510000 	cmp	r1, #0
33f81e48:	0a000004 	beq	33f81e60 <vsscanf+0x2f4>
33f81e4c:	e1a04003 	mov	r4, r3
33f81e50:	e4d31001 	ldrb	r1, [r3], #1
33f81e54:	e7d52001 	ldrb	r2, [r5, r1]
33f81e58:	e3120020 	tst	r2, #32
33f81e5c:	0afffff8 	beq	33f81e44 <vsscanf+0x2d8>
33f81e60:	e5d03000 	ldrb	r3, [r0]
33f81e64:	e7d52003 	ldrb	r2, [r5, r3]
33f81e68:	e3120020 	tst	r2, #32
33f81e6c:	1affff48 	bne	33f81b94 <vsscanf+0x28>
33f81e70:	e3530000 	cmp	r3, #0
33f81e74:	12803001 	addne	r3, r0, #1
33f81e78:	1a000002 	bne	33f81e88 <vsscanf+0x31c>
33f81e7c:	eaffff44 	b	33f81b94 <vsscanf+0x28>
33f81e80:	e3520000 	cmp	r2, #0
33f81e84:	0affff42 	beq	33f81b94 <vsscanf+0x28>
33f81e88:	e1a00003 	mov	r0, r3
33f81e8c:	e4d32001 	ldrb	r2, [r3], #1
33f81e90:	e7d5c002 	ldrb	ip, [r5, r2]
33f81e94:	e31c0020 	tst	ip, #32
33f81e98:	0afffff8 	beq	33f81e80 <vsscanf+0x314>
33f81e9c:	eaffff3c 	b	33f81b94 <vsscanf+0x28>
33f81ea0:	e3530025 	cmp	r3, #37	; 0x25
33f81ea4:	1affff5a 	bne	33f81c14 <vsscanf+0xa8>
33f81ea8:	e2800001 	add	r0, r0, #1
33f81eac:	e5d41000 	ldrb	r1, [r4]
33f81eb0:	eaffff37 	b	33f81b94 <vsscanf+0x28>
33f81eb4:	e3a09000 	mov	r9, #0
33f81eb8:	e58d9004 	str	r9, [sp, #4]
33f81ebc:	e3a02010 	mov	r2, #16
33f81ec0:	e7d51003 	ldrb	r1, [r5, r3]
33f81ec4:	e3110020 	tst	r1, #32
33f81ec8:	12801001 	addne	r1, r0, #1
33f81ecc:	11a07006 	movne	r7, r6
33f81ed0:	0a000005 	beq	33f81eec <vsscanf+0x380>
33f81ed4:	e1a00001 	mov	r0, r1
33f81ed8:	e4d13001 	ldrb	r3, [r1], #1
33f81edc:	e7d56003 	ldrb	r6, [r5, r3]
33f81ee0:	e3160020 	tst	r6, #32
33f81ee4:	1afffffa 	bne	33f81ed4 <vsscanf+0x368>
33f81ee8:	e1a06007 	mov	r6, r7
33f81eec:	e353002d 	cmp	r3, #45	; 0x2d
33f81ef0:	13a09000 	movne	r9, #0
33f81ef4:	02099001 	andeq	r9, r9, #1
33f81ef8:	e3590000 	cmp	r9, #0
33f81efc:	15d03001 	ldrbne	r3, [r0, #1]
33f81f00:	e3530000 	cmp	r3, #0
33f81f04:	0affff42 	beq	33f81c14 <vsscanf+0xa8>
33f81f08:	e3520010 	cmp	r2, #16
33f81f0c:	0a0000b9 	beq	33f821f8 <vsscanf+0x68c>
33f81f10:	e352000a 	cmp	r2, #10
33f81f14:	0a0000b3 	beq	33f821e8 <vsscanf+0x67c>
33f81f18:	e3520008 	cmp	r2, #8
33f81f1c:	1a0000af 	bne	33f821e0 <vsscanf+0x674>
33f81f20:	e7d51003 	ldrb	r1, [r5, r3]
33f81f24:	e3110004 	tst	r1, #4
33f81f28:	13a01000 	movne	r1, #0
33f81f2c:	03a01001 	moveq	r1, #1
33f81f30:	e3530037 	cmp	r3, #55	; 0x37
33f81f34:	91a03001 	movls	r3, r1
33f81f38:	83813001 	orrhi	r3, r1, #1
33f81f3c:	e3530000 	cmp	r3, #0
33f81f40:	1affff33 	bne	33f81c14 <vsscanf+0xa8>
33f81f44:	e24cc048 	sub	ip, ip, #72	; 0x48
33f81f48:	e35c0032 	cmp	ip, #50	; 0x32
33f81f4c:	979ff10c 	ldrls	pc, [pc, ip, lsl #2]
33f81f50:	ea000032 	b	33f82020 <vsscanf+0x4b4>
33f81f54:	33f821a0 	mvnscc	r2, #40	; 0x28
33f81f58:	33f82020 	mvnscc	r2, #32
33f81f5c:	33f82020 	mvnscc	r2, #32
33f81f60:	33f82020 	mvnscc	r2, #32
33f81f64:	33f82180 	mvnscc	r2, #32
33f81f68:	33f82020 	mvnscc	r2, #32
33f81f6c:	33f82020 	mvnscc	r2, #32
33f81f70:	33f82020 	mvnscc	r2, #32
33f81f74:	33f82020 	mvnscc	r2, #32
33f81f78:	33f82020 	mvnscc	r2, #32
33f81f7c:	33f82020 	mvnscc	r2, #32
33f81f80:	33f82020 	mvnscc	r2, #32
33f81f84:	33f82020 	mvnscc	r2, #32
33f81f88:	33f82020 	mvnscc	r2, #32
33f81f8c:	33f82020 	mvnscc	r2, #32
33f81f90:	33f82020 	mvnscc	r2, #32
33f81f94:	33f82020 	mvnscc	r2, #32
33f81f98:	33f82020 	mvnscc	r2, #32
33f81f9c:	33f8216c 	mvnscc	r2, #27
33f81fa0:	33f82020 	mvnscc	r2, #32
33f81fa4:	33f82020 	mvnscc	r2, #32
33f81fa8:	33f82020 	mvnscc	r2, #32
33f81fac:	33f82020 	mvnscc	r2, #32
33f81fb0:	33f82020 	mvnscc	r2, #32
33f81fb4:	33f82020 	mvnscc	r2, #32
33f81fb8:	33f82020 	mvnscc	r2, #32
33f81fbc:	33f82020 	mvnscc	r2, #32
33f81fc0:	33f82020 	mvnscc	r2, #32
33f81fc4:	33f82020 	mvnscc	r2, #32
33f81fc8:	33f82020 	mvnscc	r2, #32
33f81fcc:	33f82020 	mvnscc	r2, #32
33f81fd0:	33f82020 	mvnscc	r2, #32
33f81fd4:	33f821c0 	mvnscc	r2, #48	; 0x30
33f81fd8:	33f82020 	mvnscc	r2, #32
33f81fdc:	33f82020 	mvnscc	r2, #32
33f81fe0:	33f82020 	mvnscc	r2, #32
33f81fe4:	33f82020 	mvnscc	r2, #32
33f81fe8:	33f82020 	mvnscc	r2, #32
33f81fec:	33f82020 	mvnscc	r2, #32
33f81ff0:	33f82020 	mvnscc	r2, #32
33f81ff4:	33f82020 	mvnscc	r2, #32
33f81ff8:	33f82020 	mvnscc	r2, #32
33f81ffc:	33f82020 	mvnscc	r2, #32
33f82000:	33f82020 	mvnscc	r2, #32
33f82004:	33f82020 	mvnscc	r2, #32
33f82008:	33f82020 	mvnscc	r2, #32
33f8200c:	33f82020 	mvnscc	r2, #32
33f82010:	33f82020 	mvnscc	r2, #32
33f82014:	33f82020 	mvnscc	r2, #32
33f82018:	33f82020 	mvnscc	r2, #32
33f8201c:	33f8216c 	mvnscc	r2, #27
33f82020:	e59d3004 	ldr	r3, [sp, #4]
33f82024:	e3530000 	cmp	r3, #0
33f82028:	0a00004f 	beq	33f8216c <vsscanf+0x600>
33f8202c:	e28d100c 	add	r1, sp, #12
33f82030:	e4987004 	ldr	r7, [r8], #4
33f82034:	ebfffc7b 	bl	33f81228 <simple_strtol>
33f82038:	e5870000 	str	r0, [r7]
33f8203c:	e59d000c 	ldr	r0, [sp, #12]
33f82040:	e2866001 	add	r6, r6, #1
33f82044:	e3500000 	cmp	r0, #0
33f82048:	0afffef1 	beq	33f81c14 <vsscanf+0xa8>
33f8204c:	e5d41000 	ldrb	r1, [r4]
33f82050:	eafffecf 	b	33f81b94 <vsscanf+0x28>
33f82054:	e3720001 	cmn	r2, #1
33f82058:	e498c004 	ldr	ip, [r8], #4
33f8205c:	03a02001 	moveq	r2, #1
33f82060:	e2801001 	add	r1, r0, #1
33f82064:	e2422001 	sub	r2, r2, #1
33f82068:	e3520000 	cmp	r2, #0
33f8206c:	e4cc3001 	strb	r3, [ip], #1
33f82070:	e1a00001 	mov	r0, r1
33f82074:	da000002 	ble	33f82084 <vsscanf+0x518>
33f82078:	e4d13001 	ldrb	r3, [r1], #1
33f8207c:	e3530000 	cmp	r3, #0
33f82080:	1afffff7 	bne	33f82064 <vsscanf+0x4f8>
33f82084:	e2866001 	add	r6, r6, #1
33f82088:	e5d41000 	ldrb	r1, [r4]
33f8208c:	eafffec0 	b	33f81b94 <vsscanf+0x28>
33f82090:	e3a09001 	mov	r9, #1
33f82094:	e58d9004 	str	r9, [sp, #4]
33f82098:	e3a0200a 	mov	r2, #10
33f8209c:	eaffff87 	b	33f81ec0 <vsscanf+0x354>
33f820a0:	e4983004 	ldr	r3, [r8], #4
33f820a4:	e06a2000 	rsb	r2, sl, r0
33f820a8:	e5832000 	str	r2, [r3]
33f820ac:	e5d71001 	ldrb	r1, [r7, #1]
33f820b0:	eafffeb7 	b	33f81b94 <vsscanf+0x28>
33f820b4:	e3a09000 	mov	r9, #0
33f820b8:	e58d9004 	str	r9, [sp, #4]
33f820bc:	e3a02008 	mov	r2, #8
33f820c0:	eaffff7e 	b	33f81ec0 <vsscanf+0x354>
33f820c4:	e7d51003 	ldrb	r1, [r5, r3]
33f820c8:	e3720001 	cmn	r2, #1
33f820cc:	03e02102 	mvneq	r2, #-2147483648	; 0x80000000
33f820d0:	e3110020 	tst	r1, #32
33f820d4:	e4989004 	ldr	r9, [r8], #4
33f820d8:	0a000059 	beq	33f82244 <vsscanf+0x6d8>
33f820dc:	e2800001 	add	r0, r0, #1
33f820e0:	e1a0c000 	mov	ip, r0
33f820e4:	e4d03001 	ldrb	r3, [r0], #1
33f820e8:	e7d51003 	ldrb	r1, [r5, r3]
33f820ec:	e3110020 	tst	r1, #32
33f820f0:	1afffffa 	bne	33f820e0 <vsscanf+0x574>
33f820f4:	e3530000 	cmp	r3, #0
33f820f8:	0a000053 	beq	33f8224c <vsscanf+0x6e0>
33f820fc:	e3520000 	cmp	r2, #0
33f82100:	0a000051 	beq	33f8224c <vsscanf+0x6e0>
33f82104:	e3a01000 	mov	r1, #0
33f82108:	e1a07006 	mov	r7, r6
33f8210c:	ea000004 	b	33f82124 <vsscanf+0x5b8>
33f82110:	e7d56003 	ldrb	r6, [r5, r3]
33f82114:	e3160020 	tst	r6, #32
33f82118:	1a000007 	bne	33f8213c <vsscanf+0x5d0>
33f8211c:	e1510002 	cmp	r1, r2
33f82120:	0a000005 	beq	33f8213c <vsscanf+0x5d0>
33f82124:	e2811001 	add	r1, r1, #1
33f82128:	e4c93001 	strb	r3, [r9], #1
33f8212c:	e7dc3001 	ldrb	r3, [ip, r1]
33f82130:	e08c0001 	add	r0, ip, r1
33f82134:	e3530000 	cmp	r3, #0
33f82138:	1afffff4 	bne	33f82110 <vsscanf+0x5a4>
33f8213c:	e1a06007 	mov	r6, r7
33f82140:	e3a03000 	mov	r3, #0
33f82144:	e5c93000 	strb	r3, [r9]
33f82148:	eaffffcd 	b	33f82084 <vsscanf+0x518>
33f8214c:	e3a09000 	mov	r9, #0
33f82150:	e58d9004 	str	r9, [sp, #4]
33f82154:	e3a0200a 	mov	r2, #10
33f82158:	eaffff58 	b	33f81ec0 <vsscanf+0x354>
33f8215c:	e3a09001 	mov	r9, #1
33f82160:	e58d9004 	str	r9, [sp, #4]
33f82164:	e3a02000 	mov	r2, #0
33f82168:	eaffff54 	b	33f81ec0 <vsscanf+0x354>
33f8216c:	e28d100c 	add	r1, sp, #12
33f82170:	e4987004 	ldr	r7, [r8], #4
33f82174:	ebfffbd3 	bl	33f810c8 <simple_strtoul>
33f82178:	e5870000 	str	r0, [r7]
33f8217c:	eaffffae 	b	33f8203c <vsscanf+0x4d0>
33f82180:	e59d3004 	ldr	r3, [sp, #4]
33f82184:	e3530000 	cmp	r3, #0
33f82188:	0a000028 	beq	33f82230 <vsscanf+0x6c4>
33f8218c:	e28d100c 	add	r1, sp, #12
33f82190:	e4987004 	ldr	r7, [r8], #4
33f82194:	ebfffc9d 	bl	33f81410 <simple_strtoll>
33f82198:	e1c700f0 	strd	r0, [r7]
33f8219c:	eaffffa6 	b	33f8203c <vsscanf+0x4d0>
33f821a0:	e59d3004 	ldr	r3, [sp, #4]
33f821a4:	e3530000 	cmp	r3, #0
33f821a8:	0a00001b 	beq	33f8221c <vsscanf+0x6b0>
33f821ac:	e28d100c 	add	r1, sp, #12
33f821b0:	e4987004 	ldr	r7, [r8], #4
33f821b4:	ebfffc1b 	bl	33f81228 <simple_strtol>
33f821b8:	e5c70000 	strb	r0, [r7]
33f821bc:	eaffff9e 	b	33f8203c <vsscanf+0x4d0>
33f821c0:	e59d3004 	ldr	r3, [sp, #4]
33f821c4:	e3530000 	cmp	r3, #0
33f821c8:	0a00000e 	beq	33f82208 <vsscanf+0x69c>
33f821cc:	e28d100c 	add	r1, sp, #12
33f821d0:	e4987004 	ldr	r7, [r8], #4
33f821d4:	ebfffc13 	bl	33f81228 <simple_strtol>
33f821d8:	e1c700b0 	strh	r0, [r7]
33f821dc:	eaffff96 	b	33f8203c <vsscanf+0x4d0>
33f821e0:	e3520000 	cmp	r2, #0
33f821e4:	1affff56 	bne	33f81f44 <vsscanf+0x3d8>
33f821e8:	e7d53003 	ldrb	r3, [r5, r3]
33f821ec:	e3130004 	tst	r3, #4
33f821f0:	1affff53 	bne	33f81f44 <vsscanf+0x3d8>
33f821f4:	eafffe86 	b	33f81c14 <vsscanf+0xa8>
33f821f8:	e7d53003 	ldrb	r3, [r5, r3]
33f821fc:	e3130044 	tst	r3, #68	; 0x44
33f82200:	1affff4f 	bne	33f81f44 <vsscanf+0x3d8>
33f82204:	eafffe82 	b	33f81c14 <vsscanf+0xa8>
33f82208:	e28d100c 	add	r1, sp, #12
33f8220c:	e4987004 	ldr	r7, [r8], #4
33f82210:	ebfffbac 	bl	33f810c8 <simple_strtoul>
33f82214:	e1c700b0 	strh	r0, [r7]
33f82218:	eaffff87 	b	33f8203c <vsscanf+0x4d0>
33f8221c:	e28d100c 	add	r1, sp, #12
33f82220:	e4987004 	ldr	r7, [r8], #4
33f82224:	ebfffba7 	bl	33f810c8 <simple_strtoul>
33f82228:	e5c70000 	strb	r0, [r7]
33f8222c:	eaffff82 	b	33f8203c <vsscanf+0x4d0>
33f82230:	e28d100c 	add	r1, sp, #12
33f82234:	e4987004 	ldr	r7, [r8], #4
33f82238:	ebfffc04 	bl	33f81250 <simple_strtoull>
33f8223c:	e1c700f0 	strd	r0, [r7]
33f82240:	eaffff7d 	b	33f8203c <vsscanf+0x4d0>
33f82244:	e1a0c000 	mov	ip, r0
33f82248:	eaffffab 	b	33f820fc <vsscanf+0x590>
33f8224c:	e1a0000c 	mov	r0, ip
33f82250:	eaffffba 	b	33f82140 <vsscanf+0x5d4>
33f82254:	e3510068 	cmp	r1, #104	; 0x68
33f82258:	05f71001 	ldrbeq	r1, [r7, #1]!
33f8225c:	03a0c048 	moveq	ip, #72	; 0x48
33f82260:	0afffe88 	beq	33f81c88 <vsscanf+0x11c>
33f82264:	e351006c 	cmp	r1, #108	; 0x6c
33f82268:	05f71001 	ldrbeq	r1, [r7, #1]!
33f8226c:	03a0c04c 	moveq	ip, #76	; 0x4c
33f82270:	eafffe84 	b	33f81c88 <vsscanf+0x11c>
33f82274:	33f82bd8 	mvnscc	r2, #221184	; 0x36000

33f82278 <sscanf>:
33f82278:	e92d000e 	push	{r1, r2, r3}
33f8227c:	e52de004 	push	{lr}		; (str lr, [sp, #-4]!)
33f82280:	e59d1004 	ldr	r1, [sp, #4]
33f82284:	e28d2008 	add	r2, sp, #8
33f82288:	ebfffe37 	bl	33f81b6c <vsscanf>
33f8228c:	e49de004 	pop	{lr}		; (ldr lr, [sp], #4)
33f82290:	e28dd00c 	add	sp, sp, #12
33f82294:	e12fff1e 	bx	lr
	...

33f822a0 <__do_div64>:
33f822a0:	e254c001 	subs	ip, r4, #1
33f822a4:	9a00003f 	bls	33f823a8 <__do_div64+0x108>
33f822a8:	e11c0004 	tst	ip, r4
33f822ac:	0a000028 	beq	33f82354 <__do_div64+0xb4>
33f822b0:	e1510004 	cmp	r1, r4
33f822b4:	e3a03000 	mov	r3, #0
33f822b8:	3a00000c 	bcc	33f822f0 <__do_div64+0x50>
33f822bc:	e1a02004 	mov	r2, r4
33f822c0:	e3a0c001 	mov	ip, #1
33f822c4:	e3520102 	cmp	r2, #-2147483648	; 0x80000000
33f822c8:	31520001 	cmpcc	r2, r1
33f822cc:	31a02082 	lslcc	r2, r2, #1
33f822d0:	31a0c08c 	lslcc	ip, ip, #1
33f822d4:	3afffffa 	bcc	33f822c4 <__do_div64+0x24>
33f822d8:	e1510002 	cmp	r1, r2
33f822dc:	2183300c 	orrcs	r3, r3, ip
33f822e0:	20511002 	subscs	r1, r1, r2
33f822e4:	11b0c0ac 	lsrsne	ip, ip, #1
33f822e8:	e1a020a2 	lsr	r2, r2, #1
33f822ec:	1afffff9 	bne	33f822d8 <__do_div64+0x38>
33f822f0:	e3510000 	cmp	r1, #0
33f822f4:	e3a02000 	mov	r2, #0
33f822f8:	01500004 	cmpeq	r0, r4
33f822fc:	31a01000 	movcc	r1, r0
33f82300:	31a0f00e 	movcc	pc, lr
33f82304:	e3a0c102 	mov	ip, #-2147483648	; 0x80000000
33f82308:	e1b00080 	lsls	r0, r0, #1
33f8230c:	e0b11001 	adcs	r1, r1, r1
33f82310:	0a000005 	beq	33f8232c <__do_div64+0x8c>
33f82314:	31510004 	cmpcc	r1, r4
33f82318:	2182200c 	orrcs	r2, r2, ip
33f8231c:	20411004 	subcs	r1, r1, r4
33f82320:	e1b0c0ac 	lsrs	ip, ip, #1
33f82324:	1afffff7 	bne	33f82308 <__do_div64+0x68>
33f82328:	e1a0f00e 	mov	pc, lr
33f8232c:	2afffff9 	bcs	33f82318 <__do_div64+0x78>
33f82330:	e3500000 	cmp	r0, #0
33f82334:	01a0f00e 	moveq	pc, lr
33f82338:	e1b00080 	lsls	r0, r0, #1
33f8233c:	e1a0c0ac 	lsr	ip, ip, #1
33f82340:	3afffffc 	bcc	33f82338 <__do_div64+0x98>
33f82344:	e1b0c0ac 	lsrs	ip, ip, #1
33f82348:	e3a01001 	mov	r1, #1
33f8234c:	1affffed 	bne	33f82308 <__do_div64+0x68>
33f82350:	e1a0f00e 	mov	pc, lr
33f82354:	e1a02004 	mov	r2, r4
33f82358:	e3540801 	cmp	r4, #65536	; 0x10000
33f8235c:	e3a0c000 	mov	ip, #0
33f82360:	21a02822 	lsrcs	r2, r2, #16
33f82364:	23a0c010 	movcs	ip, #16
33f82368:	e3520c01 	cmp	r2, #256	; 0x100
33f8236c:	21a02422 	lsrcs	r2, r2, #8
33f82370:	228cc008 	addcs	ip, ip, #8
33f82374:	e3520010 	cmp	r2, #16
33f82378:	21a02222 	lsrcs	r2, r2, #4
33f8237c:	228cc004 	addcs	ip, ip, #4
33f82380:	e3520004 	cmp	r2, #4
33f82384:	828cc003 	addhi	ip, ip, #3
33f82388:	908cc0a2 	addls	ip, ip, r2, lsr #1
33f8238c:	e1a03c31 	lsr	r3, r1, ip
33f82390:	e1a02c30 	lsr	r2, r0, ip
33f82394:	e26cc020 	rsb	ip, ip, #32
33f82398:	e1822c11 	orr	r2, r2, r1, lsl ip
33f8239c:	e1a01c10 	lsl	r1, r0, ip
33f823a0:	e1a01c31 	lsr	r1, r1, ip
33f823a4:	e1a0f00e 	mov	pc, lr
33f823a8:	01a02000 	moveq	r2, r0
33f823ac:	01a03001 	moveq	r3, r1
33f823b0:	03a01000 	moveq	r1, #0
33f823b4:	01a0f00e 	moveq	pc, lr
33f823b8:	e52de004 	push	{lr}		; (str lr, [sp, #-4]!)
33f823bc:	e3a02000 	mov	r2, #0
33f823c0:	e3a03000 	mov	r3, #0
33f823c4:	e3a01000 	mov	r1, #0
33f823c8:	e49df004 	pop	{pc}		; (ldr pc, [sp], #4)
33f823cc:	e320f000 	nop	{0}

Disassembly of section .bss:

33f823d0 <g_pcOutBuf>:
	...

33f827d0 <g_pcInBuf>:
	...

33f82bd0 <___strtok>:
33f82bd0:	00000000 	andeq	r0, r0, r0

Disassembly of section .data:

33f82bd4 <warn.1037>:
33f82bd4:	00000001 	andeq	r0, r0, r1

33f82bd8 <_ctype>:
33f82bd8:	08080808 	stmdaeq	r8, {r3, fp}
33f82bdc:	08080808 	stmdaeq	r8, {r3, fp}
33f82be0:	28282808 	stmdacs	r8!, {r3, fp, sp}
33f82be4:	08082828 	stmdaeq	r8, {r3, r5, fp, sp}
33f82be8:	08080808 	stmdaeq	r8, {r3, fp}
33f82bec:	08080808 	stmdaeq	r8, {r3, fp}
33f82bf0:	08080808 	stmdaeq	r8, {r3, fp}
33f82bf4:	08080808 	stmdaeq	r8, {r3, fp}
33f82bf8:	101010a0 	andsne	r1, r0, r0, lsr #1
33f82bfc:	10101010 	andsne	r1, r0, r0, lsl r0
33f82c00:	10101010 	andsne	r1, r0, r0, lsl r0
33f82c04:	10101010 	andsne	r1, r0, r0, lsl r0
33f82c08:	04040404 	streq	r0, [r4], #-1028	; 0x404
33f82c0c:	04040404 	streq	r0, [r4], #-1028	; 0x404
33f82c10:	10100404 	andsne	r0, r0, r4, lsl #8
33f82c14:	10101010 	andsne	r1, r0, r0, lsl r0
33f82c18:	41414110 	cmpmi	r1, r0, lsl r1
33f82c1c:	01414141 	cmpeq	r1, r1, asr #2
33f82c20:	01010101 	tsteq	r1, r1, lsl #2
33f82c24:	01010101 	tsteq	r1, r1, lsl #2
33f82c28:	01010101 	tsteq	r1, r1, lsl #2
33f82c2c:	01010101 	tsteq	r1, r1, lsl #2
33f82c30:	10010101 	andne	r0, r1, r1, lsl #2
33f82c34:	10101010 	andsne	r1, r0, r0, lsl r0
33f82c38:	42424210 	submi	r4, r2, #1
33f82c3c:	02424242 	subeq	r4, r2, #536870916	; 0x20000004
33f82c40:	02020202 	andeq	r0, r2, #536870912	; 0x20000000
33f82c44:	02020202 	andeq	r0, r2, #536870912	; 0x20000000
33f82c48:	02020202 	andeq	r0, r2, #536870912	; 0x20000000
33f82c4c:	02020202 	andeq	r0, r2, #536870912	; 0x20000000
33f82c50:	10020202 	andne	r0, r2, r2, lsl #4
33f82c54:	08101010 	ldmdaeq	r0, {r4, ip}
	...
33f82c78:	101010a0 	andsne	r1, r0, r0, lsr #1
33f82c7c:	10101010 	andsne	r1, r0, r0, lsl r0
33f82c80:	10101010 	andsne	r1, r0, r0, lsl r0
33f82c84:	10101010 	andsne	r1, r0, r0, lsl r0
33f82c88:	10101010 	andsne	r1, r0, r0, lsl r0
33f82c8c:	10101010 	andsne	r1, r0, r0, lsl r0
33f82c90:	10101010 	andsne	r1, r0, r0, lsl r0
33f82c94:	10101010 	andsne	r1, r0, r0, lsl r0
33f82c98:	01010101 	tsteq	r1, r1, lsl #2
33f82c9c:	01010101 	tsteq	r1, r1, lsl #2
33f82ca0:	01010101 	tsteq	r1, r1, lsl #2
33f82ca4:	01010101 	tsteq	r1, r1, lsl #2
33f82ca8:	01010101 	tsteq	r1, r1, lsl #2
33f82cac:	10010101 	andne	r0, r1, r1, lsl #2
33f82cb0:	01010101 	tsteq	r1, r1, lsl #2
33f82cb4:	02010101 	andeq	r0, r1, #1073741824	; 0x40000000
33f82cb8:	02020202 	andeq	r0, r2, #536870912	; 0x20000000
33f82cbc:	02020202 	andeq	r0, r2, #536870912	; 0x20000000
33f82cc0:	02020202 	andeq	r0, r2, #536870912	; 0x20000000
33f82cc4:	02020202 	andeq	r0, r2, #536870912	; 0x20000000
33f82cc8:	02020202 	andeq	r0, r2, #536870912	; 0x20000000
33f82ccc:	10020202 	andne	r0, r2, r2, lsl #4
33f82cd0:	02020202 	andeq	r0, r2, #536870912	; 0x20000000
33f82cd4:	02020202 	andeq	r0, r2, #536870912	; 0x20000000

Disassembly of section .rodata:

33f82cd8 <large_digits.994>:
33f82cd8:	33323130 	teqcc	r2, #12
33f82cdc:	37363534 	undefined instruction 0x37363534
33f82ce0:	42413938 	submi	r3, r1, #917504	; 0xe0000
33f82ce4:	46454443 	strbmi	r4, [r5], -r3, asr #8
33f82ce8:	4a494847 	bmi	351d4e0c <small_digits.993+0x125210c>
33f82cec:	4e4d4c4b 	cdpmi	12, 4, cr4, cr13, cr11, {2}
33f82cf0:	5251504f 	subspl	r5, r1, #79	; 0x4f
33f82cf4:	56555453 	undefined instruction 0x56555453
33f82cf8:	5a595857 	bpl	355d8e5c <small_digits.993+0x165615c>
33f82cfc:	00000000 	andeq	r0, r0, r0

33f82d00 <small_digits.993>:
33f82d00:	33323130 	teqcc	r2, #12
33f82d04:	37363534 	undefined instruction 0x37363534
33f82d08:	62613938 	rsbvs	r3, r1, #917504	; 0xe0000
33f82d0c:	66656463 	strbtvs	r6, [r5], -r3, ror #8
33f82d10:	6a696867 	bvs	359dceb4 <small_digits.993+0x1a5a1b4>
33f82d14:	6e6d6c6b 	cdpvs	12, 6, cr6, cr13, cr11, {3}
33f82d18:	7271706f 	rsbsvc	r7, r1, #111	; 0x6f
33f82d1c:	76757473 	undefined instruction 0x76757473
33f82d20:	7a797877 	bvc	35de0f04 <small_digits.993+0x1e5e204>
33f82d24:	00000000 	andeq	r0, r0, r0

Disassembly of section .rodata.str1.4:

33f82d28 <.rodata.str1.4>:
33f82d28:	73747570 	cmnvc	r4, #469762048	; 0x1c000000
33f82d2c:	006b6f20 	rsbeq	r6, fp, r0, lsr #30
33f82d30:	6c6c6576 	cfstr64vs	mvdx6, [ip], #-472	; 0xfffffe28
33f82d34:	726f776f 	rsbvc	r7, pc, #29097984	; 0x1bc0000
33f82d38:	0000646c 	andeq	r6, r0, ip, ror #8
33f82d3c:	0a0d7325 	beq	342df9d8 <small_digits.993+0x35ccd8>
33f82d40:	00000000 	andeq	r0, r0, r0
33f82d44:	6c6c6568 	cfstr64vs	mvdx6, [ip], #-416	; 0xfffffe60
33f82d48:	6f77206f 	svcvs	0x0077206f
33f82d4c:	00646c72 	rsbeq	r6, r4, r2, ror ip
33f82d50:	61656c70 	smcvs	22208	; 0x56c0
33f82d54:	65206573 	strvs	r6, [r0, #-1395]!	; 0x573
33f82d58:	7265746e 	rsbvc	r7, r5, #1845493760	; 0x6e000000
33f82d5c:	6f777420 	svcvs	0x00777420
33f82d60:	6d756e20 	ldclvs	14, cr6, [r5, #-128]!	; 0xffffff80
33f82d64:	3a726562 	bcc	35c1c2f4 <small_digits.993+0x1c995f4>
33f82d68:	000a0d20 	andeq	r0, sl, r0, lsr #26
33f82d6c:	25206425 	strcs	r6, [r0, #-1061]!	; 0x425
33f82d70:	00000064 	andeq	r0, r0, r4, rrx
33f82d74:	00000a0d 	andeq	r0, r0, sp, lsl #20
33f82d78:	20656874 	rsbcs	r6, r5, r4, ror r8
33f82d7c:	206d7573 	rsbcs	r7, sp, r3, ror r5
33f82d80:	203a7369 	eorscs	r7, sl, r9, ror #6
33f82d84:	0a0d6425 	beq	342dbe20 <small_digits.993+0x359120>
33f82d88:	00000000 	andeq	r0, r0, r0
33f82d8c:	4c554e3c 	mrrcmi	14, 3, r4, r5, cr12
33f82d90:	00003e4c 	andeq	r3, r0, ip, asr #28

Disassembly of section .debug_abbrev:

00000000 <.debug_abbrev>:
   0:	25011101 	strcs	r1, [r1, #-257]	; 0x101
   4:	030b130e 	movweq	r1, #45838	; 0xb30e
   8:	110e1b0e 	tstne	lr, lr, lsl #22
   c:	10011201 	andne	r1, r1, r1, lsl #4
  10:	02000006 	andeq	r0, r0, #6
  14:	0b0b0024 	bleq	2c00ac <TEXT_BASE-0x33cbff54>
  18:	0e030b3e 	vmoveq.16	d3[0], r0
  1c:	0f030000 	svceq	0x00030000
  20:	490b0b00 	stmdbmi	fp, {r8, r9, fp}
  24:	04000013 	streq	r0, [r0], #-19
  28:	0c3f012e 	ldfeqs	f0, [pc], #-184	; 0xffffff48
  2c:	0b3a0e03 	bleq	e83840 <TEXT_BASE-0x330fc7c0>
  30:	0c270b3b 	stceq	11, cr0, [r7], #-236	; 0xffffff14
  34:	01111349 	tsteq	r1, r9, asr #6
  38:	06400112 	undefined instruction 0x06400112
  3c:	00001301 	andeq	r1, r0, r1, lsl #6
  40:	03000505 	movweq	r0, #1285	; 0x505
  44:	3b0b3a08 	blcc	2ce86c <TEXT_BASE-0x33cb1794>
  48:	0213490b 	andseq	r4, r3, #180224	; 0x2c000
  4c:	06000006 	streq	r0, [r0], -r6
  50:	0b0b0024 	bleq	2c00e8 <TEXT_BASE-0x33cbff18>
  54:	08030b3e 	stmdaeq	r3, {r1, r2, r3, r4, r5, r8, r9, fp}
  58:	26070000 	strcs	r0, [r7], -r0
  5c:	00134900 	andseq	r4, r3, r0, lsl #18
  60:	002e0800 	eoreq	r0, lr, r0, lsl #16
  64:	0e030c3f 	mcreq	12, 0, r0, cr3, cr15, {1}
  68:	0b3b0b3a 	bleq	ec2d58 <TEXT_BASE-0x330bd2a8>
  6c:	01111349 	tsteq	r1, r9, asr #6
  70:	06400112 	undefined instruction 0x06400112
  74:	2e090000 	cdpcs	0, 0, cr0, cr9, cr0, {0}
  78:	030c3f01 	movweq	r3, #52993	; 0xcf01
  7c:	3b0b3a0e 	blcc	2ce8bc <TEXT_BASE-0x33cb1744>
  80:	1113490b 	tstne	r3, fp, lsl #18
  84:	40011201 	andmi	r1, r1, r1, lsl #4
  88:	0a000006 	beq	a8 <TEXT_BASE-0x33f7ff58>
  8c:	08030034 	stmdaeq	r3, {r2, r4, r5}
  90:	0b3b0b3a 	bleq	ec2d80 <TEXT_BASE-0x330bd280>
  94:	0a021349 	beq	84dc0 <TEXT_BASE-0x33efb240>
  98:	01000000 	tsteq	r0, r0
  9c:	0e250111 	mcreq	1, 1, r0, cr5, cr1, {0}
  a0:	0e030b13 	vmoveq.32	d3[0], r0
  a4:	01110e1b 	tsteq	r1, fp, lsl lr
  a8:	06100112 	undefined instruction 0x06100112
  ac:	2e020000 	cdpcs	0, 0, cr0, cr2, cr0, {0}
  b0:	030c3f00 	movweq	r3, #52992	; 0xcf00
  b4:	3b0b3a0e 	blcc	2ce8f4 <TEXT_BASE-0x33cb170c>
  b8:	110c270b 	tstne	ip, fp, lsl #14
  bc:	40011201 	andmi	r1, r1, r1, lsl #4
  c0:	0300000a 	movweq	r0, #10
  c4:	0c3f012e 	ldfeqs	f0, [pc], #-184	; 0xffffff48
  c8:	0b3a0e03 	bleq	e838dc <TEXT_BASE-0x330fc724>
  cc:	0c270b3b 	stceq	11, cr0, [r7], #-236	; 0xffffff14
  d0:	01120111 	tsteq	r2, r1, lsl r1
  d4:	13010a40 	movwne	r0, #6720	; 0x1a40
  d8:	05040000 	streq	r0, [r4]
  dc:	3a080300 	bcc	200ce4 <TEXT_BASE-0x33d7f31c>
  e0:	490b3b0b 	stmdbmi	fp, {r0, r1, r3, r8, r9, fp, ip, sp}
  e4:	000a0213 	andeq	r0, sl, r3, lsl r2
  e8:	00240500 	eoreq	r0, r4, r0, lsl #10
  ec:	0b3e0b0b 	bleq	f82d20 <TEXT_BASE-0x32ffd2e0>
  f0:	00000e03 	andeq	r0, r0, r3, lsl #28
  f4:	3f002e06 	svccc	0x00002e06
  f8:	3a0e030c 	bcc	380d30 <TEXT_BASE-0x33bff2d0>
  fc:	270b3b0b 	strcs	r3, [fp, -fp, lsl #22]
 100:	1113490c 	tstne	r3, ip, lsl #18
 104:	40011201 	andmi	r1, r1, r1, lsl #4
 108:	0000000a 	andeq	r0, r0, sl
 10c:	25011101 	strcs	r1, [r1, #-257]	; 0x101
 110:	030b130e 	movweq	r1, #45838	; 0xb30e
 114:	110e1b0e 	tstne	lr, lr, lsl #22
 118:	10011201 	andne	r1, r1, r1, lsl #4
 11c:	02000006 	andeq	r0, r0, #6
 120:	0e03012e 	adfeqsp	f0, f3, #0.5
 124:	0b3b0b3a 	bleq	ec2e14 <TEXT_BASE-0x330bd1ec>
 128:	13490c27 	movtne	r0, #39975	; 0x9c27
 12c:	13010b20 	movwne	r0, #6944	; 0x1b20
 130:	05030000 	streq	r0, [r3]
 134:	3a080300 	bcc	200d3c <TEXT_BASE-0x33d7f2c4>
 138:	490b3b0b 	stmdbmi	fp, {r0, r1, r3, r8, r9, fp, ip, sp}
 13c:	04000013 	streq	r0, [r0], #-19
 140:	0e030005 	cdpeq	0, 0, cr0, cr3, cr5, {0}
 144:	0b3b0b3a 	bleq	ec2e34 <TEXT_BASE-0x330bd1cc>
 148:	00001349 	andeq	r1, r0, r9, asr #6
 14c:	03003405 	movweq	r3, #1029	; 0x405
 150:	3b0b3a08 	blcc	2ce978 <TEXT_BASE-0x33cb1688>
 154:	0013490b 	andseq	r4, r3, fp, lsl #18
 158:	00340600 	eorseq	r0, r4, r0, lsl #12
 15c:	0b3a0e03 	bleq	e83970 <TEXT_BASE-0x330fc690>
 160:	13490b3b 	movtne	r0, #39739	; 0x9b3b
 164:	24070000 	strcs	r0, [r7]
 168:	3e0b0b00 	vmlacc.f64	d0, d11, d0
 16c:	0008030b 	andeq	r0, r8, fp, lsl #6
 170:	000f0800 	andeq	r0, pc, r0, lsl #16
 174:	13490b0b 	movtne	r0, #39691	; 0x9b0b
 178:	24090000 	strcs	r0, [r9]
 17c:	3e0b0b00 	vmlacc.f64	d0, d11, d0
 180:	000e030b 	andeq	r0, lr, fp, lsl #6
 184:	002e0a00 	eoreq	r0, lr, r0, lsl #20
 188:	0b3a0e03 	bleq	e8399c <TEXT_BASE-0x330fc664>
 18c:	0c270b3b 	stceq	11, cr0, [r7], #-236	; 0xffffff14
 190:	00000b20 	andeq	r0, r0, r0, lsr #22
 194:	3f012e0b 	svccc	0x00012e0b
 198:	3a0e030c 	bcc	380dd0 <TEXT_BASE-0x33bff230>
 19c:	270b3b0b 	strcs	r3, [fp, -fp, lsl #22]
 1a0:	1113490c 	tstne	r3, ip, lsl #18
 1a4:	40011201 	andmi	r1, r1, r1, lsl #4
 1a8:	00130106 	andseq	r0, r3, r6, lsl #2
 1ac:	00340c00 	eorseq	r0, r4, r0, lsl #24
 1b0:	0b3a0e03 	bleq	e839c4 <TEXT_BASE-0x330fc63c>
 1b4:	13490b3b 	movtne	r0, #39739	; 0x9b3b
 1b8:	00000b1c 	andeq	r0, r0, ip, lsl fp
 1bc:	0300340d 	movweq	r3, #1037	; 0x40d
 1c0:	3b0b3a08 	blcc	2ce9e8 <TEXT_BASE-0x33cb1618>
 1c4:	1c13490b 	ldcne	9, cr4, [r3], {11}
 1c8:	0e00000b 	cdpeq	0, 0, cr0, cr0, cr11, {0}
 1cc:	08030034 	stmdaeq	r3, {r2, r4, r5}
 1d0:	0b3b0b3a 	bleq	ec2ec0 <TEXT_BASE-0x330bd140>
 1d4:	06021349 	streq	r1, [r2], -r9, asr #6
 1d8:	1d0f0000 	stcne	0, cr0, [pc]
 1dc:	52133100 	andspl	r3, r3, #0
 1e0:	58065501 	stmdapl	r6, {r0, r8, sl, ip, lr}
 1e4:	000b590b 	andeq	r5, fp, fp, lsl #18
 1e8:	011d1000 	tsteq	sp, r0
 1ec:	01521331 	cmpeq	r2, r1, lsr r3
 1f0:	0b580655 	bleq	1601b4c <TEXT_BASE-0x3297e4b4>
 1f4:	00000b59 	andeq	r0, r0, r9, asr fp
 1f8:	31000511 	tstcc	r0, r1, lsl r5
 1fc:	12000013 	andne	r0, r0, #19
 200:	0655010b 	ldrbeq	r0, [r5], -fp, lsl #2
 204:	34130000 	ldrcc	r0, [r3]
 208:	02133100 	andseq	r3, r3, #0
 20c:	14000006 	strne	r0, [r0], #-6
 210:	13310034 	teqne	r1, #52	; 0x34
 214:	05150000 	ldreq	r0, [r5]
 218:	02133100 	andseq	r3, r3, #0
 21c:	16000006 	strne	r0, [r0], -r6
 220:	13310005 	teqne	r1, #5
 224:	00000a02 	andeq	r0, r0, r2, lsl #20
 228:	49003517 	stmdbmi	r0, {r0, r1, r2, r4, r8, sl, ip, sp}
 22c:	00000013 	andeq	r0, r0, r3, lsl r0
 230:	25011101 	strcs	r1, [r1, #-257]	; 0x101
 234:	030b130e 	movweq	r1, #45838	; 0xb30e
 238:	110e1b0e 	tstne	lr, lr, lsl #22
 23c:	10011201 	andne	r1, r1, r1, lsl #4
 240:	02000006 	andeq	r0, r0, #6
 244:	0b0b0024 	bleq	2c02dc <TEXT_BASE-0x33cbfd24>
 248:	0e030b3e 	vmoveq.16	d3[0], r0
 24c:	16030000 	strne	r0, [r3], -r0
 250:	3a0e0300 	bcc	380e58 <TEXT_BASE-0x33bff1a8>
 254:	490b3b0b 	stmdbmi	fp, {r0, r1, r3, r8, r9, fp, ip, sp}
 258:	04000013 	streq	r0, [r0], #-19
 25c:	0b0b000f 	bleq	2c02a0 <TEXT_BASE-0x33cbfd60>
 260:	00001349 	andeq	r1, r0, r9, asr #6
 264:	3f012e05 	svccc	0x00012e05
 268:	3a0e030c 	bcc	380ea0 <TEXT_BASE-0x33bff160>
 26c:	270b3b0b 	strcs	r3, [fp, -fp, lsl #22]
 270:	1113490c 	tstne	r3, ip, lsl #18
 274:	40011201 	andmi	r1, r1, r1, lsl #4
 278:	00130106 	andseq	r0, r3, r6, lsl #2
 27c:	00050600 	andeq	r0, r5, r0, lsl #12
 280:	0b3a0803 	bleq	e82294 <TEXT_BASE-0x330fdd6c>
 284:	13490b3b 	movtne	r0, #39739	; 0x9b3b
 288:	00000a02 	andeq	r0, r0, r2, lsl #20
 28c:	00001807 	andeq	r1, r0, r7, lsl #16
 290:	00340800 	eorseq	r0, r4, r0, lsl #16
 294:	0b3a0803 	bleq	e822a8 <TEXT_BASE-0x330fdd58>
 298:	13490b3b 	movtne	r0, #39739	; 0x9b3b
 29c:	00000602 	andeq	r0, r0, r2, lsl #12
 2a0:	03003409 	movweq	r3, #1033	; 0x409
 2a4:	3b0b3a0e 	blcc	2ceae4 <TEXT_BASE-0x33cb151c>
 2a8:	0213490b 	andseq	r4, r3, #180224	; 0x2c000
 2ac:	0a00000a 	beq	2dc <TEXT_BASE-0x33f7fd24>
 2b0:	0b0b0024 	bleq	2c0348 <TEXT_BASE-0x33cbfcb8>
 2b4:	08030b3e 	stmdaeq	r3, {r1, r2, r3, r4, r5, r8, r9, fp}
 2b8:	260b0000 	strcs	r0, [fp], -r0
 2bc:	00134900 	andseq	r4, r3, r0, lsl #18
 2c0:	00340c00 	eorseq	r0, r4, r0, lsl #24
 2c4:	0b3a0e03 	bleq	e83ad8 <TEXT_BASE-0x330fc528>
 2c8:	13490b3b 	movtne	r0, #39739	; 0x9b3b
 2cc:	00000602 	andeq	r0, r0, r2, lsl #12
 2d0:	4901010d 	stmdbmi	r1, {r0, r2, r3, r8}
 2d4:	00130113 	andseq	r0, r3, r3, lsl r1
 2d8:	00210e00 	eoreq	r0, r1, r0, lsl #28
 2dc:	052f1349 	streq	r1, [pc, #-841]!	; ffffff9b <MEM_CTL_BASE+0xb7ffff9b>
 2e0:	01000000 	tsteq	r0, r0
 2e4:	0e250111 	mcreq	1, 1, r0, cr5, cr1, {0}
 2e8:	0e030b13 	vmoveq.32	d3[0], r0
 2ec:	01110e1b 	tsteq	r1, fp, lsl lr
 2f0:	06100112 	undefined instruction 0x06100112
 2f4:	16020000 	strne	r0, [r2], -r0
 2f8:	3a0e0300 	bcc	380f00 <TEXT_BASE-0x33bff100>
 2fc:	490b3b0b 	stmdbmi	fp, {r0, r1, r3, r8, r9, fp, ip, sp}
 300:	03000013 	movweq	r0, #19
 304:	0b0b0024 	bleq	2c039c <TEXT_BASE-0x33cbfc64>
 308:	0e030b3e 	vmoveq.16	d3[0], r0
 30c:	2e040000 	cdpcs	0, 0, cr0, cr4, cr0, {0}
 310:	3a0e0301 	bcc	380f1c <TEXT_BASE-0x33bff0e4>
 314:	270b3b0b 	strcs	r3, [fp, -fp, lsl #22]
 318:	2013490c 	andscs	r4, r3, ip, lsl #18
 31c:	0013010b 	andseq	r0, r3, fp, lsl #2
 320:	00050500 	andeq	r0, r5, r0, lsl #10
 324:	0b3a0803 	bleq	e82338 <TEXT_BASE-0x330fdcc8>
 328:	13490b3b 	movtne	r0, #39739	; 0x9b3b
 32c:	2e060000 	cdpcs	0, 0, cr0, cr6, cr0, {0}
 330:	030c3f01 	movweq	r3, #52993	; 0xcf01
 334:	3b0b3a0e 	blcc	2ceb74 <TEXT_BASE-0x33cb148c>
 338:	490c270b 	stmdbmi	ip, {r0, r1, r3, r8, r9, sl, sp}
 33c:	010b2013 	tsteq	fp, r3, lsl r0
 340:	07000013 	smladeq	r0, r3, r0, r0
 344:	08030034 	stmdaeq	r3, {r2, r4, r5}
 348:	0b3b0b3a 	bleq	ec3038 <TEXT_BASE-0x330bcfc8>
 34c:	00001349 	andeq	r1, r0, r9, asr #6
 350:	0b000f08 	bleq	3f78 <TEXT_BASE-0x33f7c088>
 354:	0013490b 	andseq	r4, r3, fp, lsl #18
 358:	00260900 	eoreq	r0, r6, r0, lsl #18
 35c:	00001349 	andeq	r1, r0, r9, asr #6
 360:	3f012e0a 	svccc	0x00012e0a
 364:	3a0e030c 	bcc	380f9c <TEXT_BASE-0x33bff064>
 368:	27053b0b 	strcs	r3, [r5, -fp, lsl #22]
 36c:	2013490c 	andscs	r4, r3, ip, lsl #18
 370:	0013010b 	andseq	r0, r3, fp, lsl #2
 374:	00050b00 	andeq	r0, r5, r0, lsl #22
 378:	0b3a0803 	bleq	e8238c <TEXT_BASE-0x330fdc74>
 37c:	1349053b 	movtne	r0, #38203	; 0x953b
 380:	340c0000 	strcc	r0, [ip]
 384:	3a080300 	bcc	200f8c <TEXT_BASE-0x33d7f074>
 388:	49053b0b 	stmdbmi	r5, {r0, r1, r3, r8, r9, fp, ip, sp}
 38c:	0d000013 	stceq	0, cr0, [r0, #-76]	; 0xffffffb4
 390:	0e030005 	cdpeq	0, 0, cr0, cr3, cr5, {0}
 394:	053b0b3a 	ldreq	r0, [fp, #-2874]!	; 0xb3a
 398:	00001349 	andeq	r1, r0, r9, asr #6
 39c:	0b00240e 	bleq	93dc <TEXT_BASE-0x33f76c24>
 3a0:	030b3e0b 	movweq	r3, #48651	; 0xbe0b
 3a4:	0f000008 	svceq	0x00000008
 3a8:	00000026 	andeq	r0, r0, r6, lsr #32
 3ac:	3f012e10 	svccc	0x00012e10
 3b0:	3a0e030c 	bcc	380fe8 <TEXT_BASE-0x33bff018>
 3b4:	270b3b0b 	strcs	r3, [fp, -fp, lsl #22]
 3b8:	1113490c 	tstne	r3, ip, lsl #18
 3bc:	40011201 	andmi	r1, r1, r1, lsl #4
 3c0:	00130106 	andseq	r0, r3, r6, lsl #2
 3c4:	00051100 	andeq	r1, r5, r0, lsl #2
 3c8:	0b3a0803 	bleq	e823dc <TEXT_BASE-0x330fdc24>
 3cc:	13490b3b 	movtne	r0, #39739	; 0x9b3b
 3d0:	00000602 	andeq	r0, r0, r2, lsl #12
 3d4:	03003412 	movweq	r3, #1042	; 0x412
 3d8:	3b0b3a08 	blcc	2cec00 <TEXT_BASE-0x33cb1400>
 3dc:	0213490b 	andseq	r4, r3, #180224	; 0x2c000
 3e0:	13000006 	movwne	r0, #6
 3e4:	1331011d 	teqne	r1, #1073741831	; 0x40000007
 3e8:	06550152 	undefined instruction 0x06550152
 3ec:	0b590b58 	bleq	1643154 <TEXT_BASE-0x3293ceac>
 3f0:	00001301 	andeq	r1, r0, r1, lsl #6
 3f4:	31000514 	tstcc	r0, r4, lsl r5
 3f8:	00060213 	andeq	r0, r6, r3, lsl r2
 3fc:	011d1500 	tsteq	sp, r0, lsl #10
 400:	01521331 	cmpeq	r2, r1, lsr r3
 404:	0b580655 	bleq	1601d60 <TEXT_BASE-0x3297e2a0>
 408:	00000b59 	andeq	r0, r0, r9, asr fp
 40c:	3f012e16 	svccc	0x00012e16
 410:	3a0e030c 	bcc	381048 <TEXT_BASE-0x33bfefb8>
 414:	270b3b0b 	strcs	r3, [fp, -fp, lsl #22]
 418:	1113490c 	tstne	r3, ip, lsl #18
 41c:	40011201 	andmi	r1, r1, r1, lsl #4
 420:	0013010a 	andseq	r0, r3, sl, lsl #2
 424:	00051700 	andeq	r1, r5, r0, lsl #14
 428:	0b3a0e03 	bleq	e83c3c <TEXT_BASE-0x330fc3c4>
 42c:	13490b3b 	movtne	r0, #39739	; 0x9b3b
 430:	00000602 	andeq	r0, r0, r2, lsl #12
 434:	03003418 	movweq	r3, #1048	; 0x418
 438:	3b0b3a08 	blcc	2cec60 <TEXT_BASE-0x33cb13a0>
 43c:	0213490b 	andseq	r4, r3, #180224	; 0x2c000
 440:	1900000a 	stmdbne	r0, {r1, r3}
 444:	0e030034 	mcreq	0, 0, r0, cr3, cr4, {1}
 448:	0b3b0b3a 	bleq	ec3138 <TEXT_BASE-0x330bcec8>
 44c:	06021349 	streq	r1, [r2], -r9, asr #6
 450:	0b1a0000 	bleq	680458 <TEXT_BASE-0x338ffba8>
 454:	00065501 	andeq	r5, r6, r1, lsl #10
 458:	00341b00 	eorseq	r1, r4, r0, lsl #22
 45c:	06021331 	undefined instruction 0x06021331
 460:	2e1c0000 	cdpcs	0, 1, cr0, cr12, cr0, {0}
 464:	11133101 	tstne	r3, r1, lsl #2
 468:	40011201 	andmi	r1, r1, r1, lsl #4
 46c:	0013010a 	andseq	r0, r3, sl, lsl #2
 470:	00341d00 	eorseq	r1, r4, r0, lsl #26
 474:	0b3a0803 	bleq	e82488 <TEXT_BASE-0x330fdb78>
 478:	1349053b 	movtne	r0, #38203	; 0x953b
 47c:	00000602 	andeq	r0, r0, r2, lsl #12
 480:	0300341e 	movweq	r3, #1054	; 0x41e
 484:	3b0b3a0e 	blcc	2cecc4 <TEXT_BASE-0x33cb133c>
 488:	02134905 	andseq	r4, r3, #81920	; 0x14000
 48c:	1f000006 	svcne	0x00000006
 490:	1331012e 	teqne	r1, #-2147483637	; 0x8000000b
 494:	01120111 	tsteq	r2, r1, lsl r1
 498:	13010640 	movwne	r0, #5696	; 0x1640
 49c:	05200000 	streq	r0, [r0]!
 4a0:	02133100 	andseq	r3, r3, #0
 4a4:	2100000a 	tstcs	r0, sl
 4a8:	0c3f012e 	ldfeqs	f0, [pc], #-184	; 0xffffff48
 4ac:	0b3a0e03 	bleq	e83cc0 <TEXT_BASE-0x330fc340>
 4b0:	0c27053b 	cfstr32eq	mvfx0, [r7], #-236	; 0xffffff14
 4b4:	01111349 	tsteq	r1, r9, asr #6
 4b8:	06400112 	undefined instruction 0x06400112
 4bc:	00001301 	andeq	r1, r0, r1, lsl #6
 4c0:	03000522 	movweq	r0, #1314	; 0x522
 4c4:	3b0b3a08 	blcc	2cecec <TEXT_BASE-0x33cb1314>
 4c8:	02134905 	andseq	r4, r3, #81920	; 0x14000
 4cc:	23000006 	movwcs	r0, #6
 4d0:	1331011d 	teqne	r1, #1073741831	; 0x40000007
 4d4:	01120111 	tsteq	r2, r1, lsl r1
 4d8:	05590b58 	ldrbeq	r0, [r9, #-2904]	; 0xb58
 4dc:	05240000 	streq	r0, [r4]!
 4e0:	00133100 	andseq	r3, r3, r0, lsl #2
 4e4:	010b2500 	tsteq	fp, r0, lsl #10
 4e8:	01120111 	tsteq	r2, r1, lsl r1
 4ec:	34260000 	strtcc	r0, [r6]
 4f0:	00133100 	andseq	r3, r3, r0, lsl #2
 4f4:	00052700 	andeq	r2, r5, r0, lsl #14
 4f8:	0b3a0803 	bleq	e8250c <TEXT_BASE-0x330fdaf4>
 4fc:	1349053b 	movtne	r0, #38203	; 0x953b
 500:	00000a02 	andeq	r0, r0, r2, lsl #20
 504:	3f012e28 	svccc	0x00012e28
 508:	3a0e030c 	bcc	381140 <TEXT_BASE-0x33bfeec0>
 50c:	27053b0b 	strcs	r3, [r5, -fp, lsl #22]
 510:	1113490c 	tstne	r3, ip, lsl #18
 514:	40011201 	andmi	r1, r1, r1, lsl #4
 518:	0013010a 	andseq	r0, r3, sl, lsl #2
 51c:	00052900 	andeq	r2, r5, r0, lsl #18
 520:	0b3a0e03 	bleq	e83d34 <TEXT_BASE-0x330fc2cc>
 524:	1349053b 	movtne	r0, #38203	; 0x953b
 528:	00000602 	andeq	r0, r0, r2, lsl #12
 52c:	0b000f2a 	bleq	41dc <TEXT_BASE-0x33f7be24>
 530:	2b00000b 	blcs	564 <TEXT_BASE-0x33f7fa9c>
 534:	0c3f012e 	ldfeqs	f0, [pc], #-184	; 0xffffff48
 538:	0b3a0e03 	bleq	e83d4c <TEXT_BASE-0x330fc2b4>
 53c:	0c27053b 	cfstr32eq	mvfx0, [r7], #-236	; 0xffffff14
 540:	01120111 	tsteq	r2, r1, lsl r1
 544:	13010a40 	movwne	r0, #6720	; 0x1a40
 548:	052c0000 	streq	r0, [ip]!
 54c:	3a0e0300 	bcc	381154 <TEXT_BASE-0x33bfeeac>
 550:	49053b0b 	stmdbmi	r5, {r0, r1, r3, r8, r9, fp, ip, sp}
 554:	000a0213 	andeq	r0, sl, r3, lsl r2
 558:	011d2d00 	tsteq	sp, r0, lsl #26
 55c:	01521331 	cmpeq	r2, r1, lsr r3
 560:	0b580655 	bleq	1601ebc <TEXT_BASE-0x3297e144>
 564:	13010559 	movwne	r0, #5465	; 0x1559
 568:	1d2e0000 	stcne	0, cr0, [lr]
 56c:	11133101 	tstne	r3, r1, lsl #2
 570:	58011201 	stmdapl	r1, {r0, r9, ip}
 574:	0105590b 	tsteq	r5, fp, lsl #18
 578:	2f000013 	svccs	0x00000013
 57c:	13490101 	movtne	r0, #37121	; 0x9101
 580:	00001301 	andeq	r1, r0, r1, lsl #6
 584:	00002130 	andeq	r2, r0, r0, lsr r1
 588:	00343100 	eorseq	r3, r4, r0, lsl #2
 58c:	0b3a0e03 	bleq	e83da0 <TEXT_BASE-0x330fc260>
 590:	13490b3b 	movtne	r0, #39739	; 0x9b3b
 594:	0c3c0c3f 	ldceq	12, cr0, [ip], #-252	; 0xffffff04
 598:	34320000 	ldrtcc	r0, [r2]
 59c:	3a0e0300 	bcc	3811a4 <TEXT_BASE-0x33bfee5c>
 5a0:	490b3b0b 	stmdbmi	fp, {r0, r1, r3, r8, r9, fp, ip, sp}
 5a4:	020c3f13 	andeq	r3, ip, #76	; 0x4c
 5a8:	0000000a 	andeq	r0, r0, sl
 5ac:	25011101 	strcs	r1, [r1, #-257]	; 0x101
 5b0:	030b130e 	movweq	r1, #45838	; 0xb30e
 5b4:	110e1b0e 	tstne	lr, lr, lsl #22
 5b8:	10011201 	andne	r1, r1, r1, lsl #4
 5bc:	02000006 	andeq	r0, r0, #6
 5c0:	0e030016 	mcreq	0, 0, r0, cr3, cr6, {0}
 5c4:	0b3b0b3a 	bleq	ec32b4 <TEXT_BASE-0x330bcd4c>
 5c8:	00001349 	andeq	r1, r0, r9, asr #6
 5cc:	0b002403 	bleq	95e0 <TEXT_BASE-0x33f76a20>
 5d0:	030b3e0b 	movweq	r3, #48651	; 0xbe0b
 5d4:	0400000e 	streq	r0, [r0], #-14
 5d8:	0b0b000f 	bleq	2c061c <TEXT_BASE-0x33cbf9e4>
 5dc:	00001349 	andeq	r1, r0, r9, asr #6
 5e0:	03012e05 	movweq	r2, #7685	; 0x1e05
 5e4:	3b0b3a0e 	blcc	2cee24 <TEXT_BASE-0x33cb11dc>
 5e8:	490c270b 	stmdbmi	ip, {r0, r1, r3, r8, r9, sl, sp}
 5ec:	010b2013 	tsteq	fp, r3, lsl r0
 5f0:	06000013 	undefined instruction 0x06000013
 5f4:	08030005 	stmdaeq	r3, {r0, r2}
 5f8:	0b3b0b3a 	bleq	ec32e8 <TEXT_BASE-0x330bcd18>
 5fc:	00001349 	andeq	r1, r0, r9, asr #6
 600:	03003407 	movweq	r3, #1031	; 0x407
 604:	3b0b3a08 	blcc	2cee2c <TEXT_BASE-0x33cb11d4>
 608:	0013490b 	andseq	r4, r3, fp, lsl #18
 60c:	00240800 	eoreq	r0, r4, r0, lsl #16
 610:	0b3e0b0b 	bleq	f83244 <TEXT_BASE-0x32ffcdbc>
 614:	00000803 	andeq	r0, r0, r3, lsl #16
 618:	49002609 	stmdbmi	r0, {r0, r3, r9, sl, sp}
 61c:	0a000013 	beq	670 <TEXT_BASE-0x33f7f990>
 620:	0e03012e 	adfeqsp	f0, f3, #0.5
 624:	0b3b0b3a 	bleq	ec3314 <TEXT_BASE-0x330bccec>
 628:	13490c27 	movtne	r0, #39975	; 0x9c27
 62c:	01120111 	tsteq	r2, r1, lsl r1
 630:	13010640 	movwne	r0, #5696	; 0x1640
 634:	050b0000 	streq	r0, [fp]
 638:	3a080300 	bcc	201240 <TEXT_BASE-0x33d7edc0>
 63c:	490b3b0b 	stmdbmi	fp, {r0, r1, r3, r8, r9, fp, ip, sp}
 640:	00060213 	andeq	r0, r6, r3, lsl r2
 644:	00050c00 	andeq	r0, r5, r0, lsl #24
 648:	0b3a0e03 	bleq	e83e5c <TEXT_BASE-0x330fc1a4>
 64c:	13490b3b 	movtne	r0, #39739	; 0x9b3b
 650:	00000a02 	andeq	r0, r0, r2, lsl #20
 654:	0300050d 	movweq	r0, #1293	; 0x50d
 658:	3b0b3a0e 	blcc	2cee98 <TEXT_BASE-0x33cb1168>
 65c:	0213490b 	andseq	r4, r3, #180224	; 0x2c000
 660:	0e000006 	cdpeq	0, 0, cr0, cr0, cr6, {0}
 664:	08030034 	stmdaeq	r3, {r2, r4, r5}
 668:	0b3b0b3a 	bleq	ec3358 <TEXT_BASE-0x330bcca8>
 66c:	06021349 	streq	r1, [r2], -r9, asr #6
 670:	340f0000 	strcc	r0, [pc], #0	; 678 <TEXT_BASE-0x33f7f988>
 674:	3a0e0300 	bcc	38127c <TEXT_BASE-0x33bfed84>
 678:	490b3b0b 	stmdbmi	fp, {r0, r1, r3, r8, r9, fp, ip, sp}
 67c:	00060213 	andeq	r0, r6, r3, lsl r2
 680:	00341000 	eorseq	r1, r4, r0
 684:	0b3a0803 	bleq	e82698 <TEXT_BASE-0x330fd968>
 688:	13490b3b 	movtne	r0, #39739	; 0x9b3b
 68c:	00000a02 	andeq	r0, r0, r2, lsl #20
 690:	03003411 	movweq	r3, #1041	; 0x411
 694:	3b0b3a0e 	blcc	2ceed4 <TEXT_BASE-0x33cb112c>
 698:	0213490b 	andseq	r4, r3, #180224	; 0x2c000
 69c:	1200000a 	andne	r0, r0, #10
 6a0:	0111010b 	tsteq	r1, fp, lsl #2
 6a4:	00000112 	andeq	r0, r0, r2, lsl r1
 6a8:	03003413 	movweq	r3, #1043	; 0x413
 6ac:	3b0b3a0e 	blcc	2ceeec <TEXT_BASE-0x33cb1114>
 6b0:	0013490b 	andseq	r4, r3, fp, lsl #18
 6b4:	01011400 	tsteq	r1, r0, lsl #8
 6b8:	13011349 	movwne	r1, #4937	; 0x1349
 6bc:	21150000 	tstcs	r5, r0
 6c0:	2f134900 	svccs	0x00134900
 6c4:	1600000b 	strne	r0, [r0], -fp
 6c8:	0c3f012e 	ldfeqs	f0, [pc], #-184	; 0xffffff48
 6cc:	0b3a0e03 	bleq	e83ee0 <TEXT_BASE-0x330fc120>
 6d0:	0c270b3b 	stceq	11, cr0, [r7], #-236	; 0xffffff14
 6d4:	01111349 	tsteq	r1, r9, asr #6
 6d8:	06400112 	undefined instruction 0x06400112
 6dc:	00001301 	andeq	r1, r0, r1, lsl #6
 6e0:	31011d17 	tstcc	r1, r7, lsl sp
 6e4:	12011113 	andne	r1, r1, #-1073741820	; 0xc0000004
 6e8:	590b5801 	stmdbpl	fp, {r0, fp, ip, lr}
 6ec:	0013010b 	andseq	r0, r3, fp, lsl #2
 6f0:	00051800 	andeq	r1, r5, r0, lsl #16
 6f4:	06021331 	undefined instruction 0x06021331
 6f8:	1d190000 	ldcne	0, cr0, [r9]
 6fc:	11133101 	tstne	r3, r1, lsl #2
 700:	58011201 	stmdapl	r1, {r0, r9, ip}
 704:	000b590b 	andeq	r5, fp, fp, lsl #18
 708:	012e1a00 	teqeq	lr, r0, lsl #20
 70c:	0e030c3f 	mcreq	12, 0, r0, cr3, cr15, {1}
 710:	053b0b3a 	ldreq	r0, [fp, #-2874]!	; 0xb3a
 714:	13490c27 	movtne	r0, #39975	; 0x9c27
 718:	01120111 	tsteq	r2, r1, lsl r1
 71c:	13010640 	movwne	r0, #5696	; 0x1640
 720:	051b0000 	ldreq	r0, [fp]
 724:	3a080300 	bcc	20132c <TEXT_BASE-0x33d7ecd4>
 728:	49053b0b 	stmdbmi	r5, {r0, r1, r3, r8, r9, fp, ip, sp}
 72c:	00060213 	andeq	r0, r6, r3, lsl r2
 730:	00051c00 	andeq	r1, r5, r0, lsl #24
 734:	0b3a0e03 	bleq	e83f48 <TEXT_BASE-0x330fc0b8>
 738:	1349053b 	movtne	r0, #38203	; 0x953b
 73c:	00000602 	andeq	r0, r0, r2, lsl #12
 740:	0300341d 	movweq	r3, #1053	; 0x41d
 744:	3b0b3a08 	blcc	2cef6c <TEXT_BASE-0x33cb1094>
 748:	02134905 	andseq	r4, r3, #81920	; 0x14000
 74c:	1e000006 	cdpne	0, 0, cr0, cr0, cr6, {0}
 750:	0e030034 	mcreq	0, 0, r0, cr3, cr4, {1}
 754:	053b0b3a 	ldreq	r0, [fp, #-2874]!	; 0xb3a
 758:	06021349 	streq	r1, [r2], -r9, asr #6
 75c:	0a1f0000 	beq	7c0764 <TEXT_BASE-0x337bf89c>
 760:	3a0e0300 	bcc	381368 <TEXT_BASE-0x33bfec98>
 764:	00053b0b 	andeq	r3, r5, fp, lsl #22
 768:	011d2000 	tsteq	sp, r0
 76c:	01111331 	tsteq	r1, r1, lsr r3
 770:	0b580112 	bleq	1600bc0 <TEXT_BASE-0x3297f440>
 774:	13010559 	movwne	r0, #5465	; 0x1559
 778:	05210000 	streq	r0, [r1]!
 77c:	00133100 	andseq	r3, r3, r0, lsl #2
 780:	00342200 	eorseq	r2, r4, r0, lsl #4
 784:	06021331 	undefined instruction 0x06021331
 788:	0b230000 	bleq	8c0790 <TEXT_BASE-0x336bf870>
 78c:	12011101 	andne	r1, r1, #1073741824	; 0x40000000
 790:	00130101 	andseq	r0, r3, r1, lsl #2
 794:	00342400 	eorseq	r2, r4, r0, lsl #8
 798:	0b3a0e03 	bleq	e83fac <TEXT_BASE-0x330fc054>
 79c:	1349053b 	movtne	r0, #38203	; 0x953b
 7a0:	00000a02 	andeq	r0, r0, r2, lsl #20
 7a4:	03000525 	movweq	r0, #1317	; 0x525
 7a8:	3b0b3a08 	blcc	2cefd0 <TEXT_BASE-0x33cb1030>
 7ac:	02134905 	andseq	r4, r3, #81920	; 0x14000
 7b0:	2600000a 	strcs	r0, [r0], -sl
 7b4:	00000018 	andeq	r0, r0, r8, lsl r0
 7b8:	03003427 	movweq	r3, #1063	; 0x427
 7bc:	3b0b3a08 	blcc	2cefe4 <TEXT_BASE-0x33cb101c>
 7c0:	00134905 	andseq	r4, r3, r5, lsl #18
 7c4:	012e2800 	teqeq	lr, r0, lsl #16
 7c8:	0e030c3f 	mcreq	12, 0, r0, cr3, cr15, {1}
 7cc:	053b0b3a 	ldreq	r0, [fp, #-2874]!	; 0xb3a
 7d0:	13490c27 	movtne	r0, #39975	; 0x9c27
 7d4:	01120111 	tsteq	r2, r1, lsl r1
 7d8:	13010a40 	movwne	r0, #6720	; 0x1a40
 7dc:	0b290000 	bleq	a407e4 <TEXT_BASE-0x3353f81c>
 7e0:	01065501 	tsteq	r6, r1, lsl #10
 7e4:	2a000013 	bcs	838 <TEXT_BASE-0x33f7f7c8>
 7e8:	00000021 	andeq	r0, r0, r1, lsr #32
 7ec:	0300342b 	movweq	r3, #1067	; 0x42b
 7f0:	3b0b3a0e 	blcc	2cf030 <TEXT_BASE-0x33cb0fd0>
 7f4:	3f13490b 	svccc	0x0013490b
 7f8:	000c3c0c 	andeq	r3, ip, ip, lsl #24
 7fc:	11010000 	tstne	r1, r0
 800:	11061000 	tstne	r6, r0
 804:	03011201 	movweq	r1, #4609	; 0x1201
 808:	25081b08 	strcs	r1, [r8, #-2824]	; 0xb08
 80c:	00051308 	andeq	r1, r5, r8, lsl #6
 810:	11010000 	tstne	r1, r0
 814:	130e2501 	movwne	r2, #58625	; 0xe501
 818:	1b0e030b 	blne	38144c <TEXT_BASE-0x33bfebb4>
 81c:	1201110e 	andne	r1, r1, #-2147483645	; 0x80000003
 820:	00061001 	andeq	r1, r6, r1
 824:	01010200 	tsteq	r1, r0, lsl #4
 828:	13011349 	movwne	r1, #4937	; 0x1349
 82c:	21030000 	tstcs	r3, r0
 830:	2f134900 	svccs	0x00134900
 834:	0400000b 	streq	r0, [r0], #-11
 838:	0b0b0024 	bleq	2c08d0 <TEXT_BASE-0x33cbf730>
 83c:	0e030b3e 	vmoveq.16	d3[0], r0
 840:	34050000 	strcc	r0, [r5]
 844:	3a0e0300 	bcc	38144c <TEXT_BASE-0x33bfebb4>
 848:	490b3b0b 	stmdbmi	fp, {r0, r1, r3, r8, r9, fp, ip, sp}
 84c:	3c0c3f13 	stccc	15, cr3, [ip], {19}
 850:	0600000c 	streq	r0, [r0], -ip
 854:	0e030034 	mcreq	0, 0, r0, cr3, cr4, {1}
 858:	0b3b0b3a 	bleq	ec3548 <TEXT_BASE-0x330bcab8>
 85c:	0c3f1349 	ldceq	3, cr1, [pc], #-292	; 0xfffffedc
 860:	00000a02 	andeq	r0, r0, r2, lsl #20
	...

Disassembly of section .debug_info:

00000000 <.debug_info>:
       0:	000000f9 	strdeq	r0, [r0], -r9
       4:	00000002 	andeq	r0, r0, r2
       8:	01040000 	tsteq	r4, r0
       c:	00000046 	andeq	r0, r0, r6, asr #32
      10:	00000d01 	andeq	r0, r0, r1, lsl #26
      14:	00001400 	andeq	r1, r0, r0, lsl #8
      18:	f8025000 	undefined instruction 0xf8025000
      1c:	f8038433 	undefined instruction 0xf8038433
      20:	00000033 	andeq	r0, r0, r3, lsr r0
      24:	07040200 	streq	r0, [r4, -r0, lsl #4]
      28:	00000395 	muleq	r0, r5, r3
      2c:	00320403 	eorseq	r0, r2, r3, lsl #8
      30:	01020000 	tsteq	r2, r0
      34:	00006608 	andeq	r6, r0, r8, lsl #12
      38:	00010400 	andeq	r0, r1, r0, lsl #8
      3c:	01000000 	tsteq	r0, r0
      40:	00640109 	rsbeq	r0, r4, r9, lsl #2
      44:	02500000 	subseq	r0, r0, #0
      48:	02ac33f8 	adceq	r3, ip, #-536870909	; 0xe0000003
      4c:	000033f8 	strdeq	r3, [r0], -r8
      50:	00640000 	rsbeq	r0, r4, r0
      54:	63050000 	movwvs	r0, #20480	; 0x5000
      58:	64090100 	strvs	r0, [r9], #-256	; 0x100
      5c:	20000000 	andcs	r0, r0, r0
      60:	00000000 	andeq	r0, r0, r0
      64:	69050406 	stmdbvs	r5, {r1, r2, sl}
      68:	0400746e 	streq	r7, [r0], #-1134	; 0x46e
      6c:	00000801 	andeq	r0, r0, r1, lsl #16
      70:	01190100 	tsteq	r9, r0, lsl #2
      74:	00000064 	andeq	r0, r0, r4, rrx
      78:	33f802ac 	mvnscc	r0, #-1073741814	; 0xc000000a
      7c:	33f802d8 	mvnscc	r0, #-2147483635	; 0x8000000d
      80:	0000003e 	andeq	r0, r0, lr, lsr r0
      84:	00000096 	muleq	r0, r6, r0
      88:	01007305 	tsteq	r0, r5, lsl #6
      8c:	00009619 	andeq	r9, r0, r9, lsl r6
      90:	00005e00 	andeq	r5, r0, r0, lsl #28
      94:	04030000 	streq	r0, [r3]
      98:	0000009c 	muleq	r0, ip, r0
      9c:	00003207 	andeq	r3, r0, r7, lsl #4
      a0:	52010800 	andpl	r0, r1, #0
      a4:	01000000 	tsteq	r0, r0
      a8:	00006423 	andeq	r6, r0, r3, lsr #8
      ac:	f802d800 	undefined instruction 0xf802d800
      b0:	f8031033 	undefined instruction 0xf8031033
      b4:	00007c33 	andeq	r7, r0, r3, lsr ip
      b8:	57010900 	strpl	r0, [r1, -r0, lsl #18]
      bc:	01000000 	tsteq	r0, r0
      c0:	0000642e 	andeq	r6, r0, lr, lsr #8
      c4:	f8031000 	undefined instruction 0xf8031000
      c8:	f8038433 	undefined instruction 0xf8038433
      cc:	00009c33 	andeq	r9, r0, r3, lsr ip
      d0:	00610a00 	rsbeq	r0, r1, r0, lsl #20
      d4:	00643001 	rsbeq	r3, r4, r1
      d8:	91020000 	tstls	r2, r0
      dc:	00620a64 	rsbeq	r0, r2, r4, ror #20
      e0:	00643101 	rsbeq	r3, r4, r1, lsl #2
      e4:	91020000 	tstls	r2, r0
      e8:	74730a60 	ldrbtvc	r0, [r3], #-2656	; 0xa60
      ec:	32010072 	andcc	r0, r1, #114	; 0x72
      f0:	0000002c 	andeq	r0, r0, ip, lsr #32
      f4:	2d440306 	stclcs	3, cr0, [r4, #-24]	; 0xffffffe8
      f8:	009f33f8 	undefined instruction 0x009f33f8
      fc:	00007900 	andeq	r7, r0, r0, lsl #18
     100:	9b000200 	blls	908 <TEXT_BASE-0x33f7f6f8>
     104:	04000000 	streq	r0, [r0]
     108:	00004601 	andeq	r4, r0, r1, lsl #12
     10c:	006b0100 	rsbeq	r0, fp, r0, lsl #2
     110:	00140000 	andseq	r0, r4, r0
     114:	03840000 	orreq	r0, r4, #0
     118:	040033f8 	streq	r3, [r0], #-1016	; 0x3f8
     11c:	006f33f8 	strdeq	r3, [pc, #-56]	; ec <TEXT_BASE-0x33f7ff14>
     120:	01020000 	tsteq	r2, r0
     124:	00000077 	andeq	r0, r0, r7, ror r0
     128:	84011c01 	strhi	r1, [r1], #-3073	; 0xc01
     12c:	c833f803 	ldmdagt	r3!, {r0, r1, fp, ip, sp, lr, pc}
     130:	0233f803 	eorseq	pc, r3, #196608	; 0x30000
     134:	0103007d 	tsteq	r3, sp, ror r0
     138:	00000081 	andeq	r0, r0, r1, lsl #1
     13c:	c8012b01 	stmdagt	r1, {r0, r8, r9, fp, sp}
     140:	e433f803 	ldrt	pc, [r3], #-2051	; 0x803
     144:	0233f803 	eorseq	pc, r3, #196608	; 0x30000
     148:	005d007d 	subseq	r0, sp, sp, ror r0
     14c:	63040000 	movwvs	r0, #16384	; 0x4000
     150:	5d2b0100 	stfpls	f0, [fp]
     154:	01000000 	tsteq	r0, r0
     158:	01050050 	qaddeq	r0, r0, r5
     15c:	00005d08 	andeq	r5, r0, r8, lsl #26
     160:	72010600 	andvc	r0, r1, #0
     164:	01000000 	tsteq	r0, r0
     168:	005d0138 	subseq	r0, sp, r8, lsr r1
     16c:	03e40000 	mvneq	r0, #0
     170:	040033f8 	streq	r3, [r0], #-1016	; 0x3f8
     174:	7d0233f8 	stcvc	3, cr3, [r2, #-992]	; 0xfffffc20
     178:	01b90000 	undefined instruction 0x01b90000
     17c:	00020000 	andeq	r0, r2, r0
     180:	0000010c 	andeq	r0, r0, ip, lsl #2
     184:	00460104 	subeq	r0, r6, r4, lsl #2
     188:	92010000 	andls	r0, r1, #0
     18c:	14000000 	strne	r0, [r0]
     190:	00000000 	andeq	r0, r0, r0
     194:	8c33f804 	ldchi	8, cr15, [r3], #-16
     198:	c733f805 	ldrgt	pc, [r3, -r5, lsl #16]!
     19c:	02000000 	andeq	r0, r0, #0
     1a0:	000000b2 	strheq	r0, [r0], -r2
     1a4:	6c013d01 	stcvs	13, cr3, [r1], {1}
     1a8:	01000000 	tsteq	r0, r0
     1ac:	0000006c 	andeq	r0, r0, ip, rrx
     1b0:	66756203 	ldrbtvs	r6, [r5], -r3, lsl #4
     1b4:	733d0100 	teqvc	sp, #0
     1b8:	04000000 	streq	r0, [r0]
     1bc:	000000fc 	strdeq	r0, [r0], -ip
     1c0:	00803d01 	addeq	r3, r0, r1, lsl #26
     1c4:	86040000 	strhi	r0, [r4], -r0
     1c8:	01000000 	tsteq	r0, r0
     1cc:	00006c3d 	andeq	r6, r0, sp, lsr ip
     1d0:	00690500 	rsbeq	r0, r9, r0, lsl #10
     1d4:	006c3f01 	rsbeq	r3, ip, r1, lsl #30
     1d8:	e1060000 	tst	r6, r0
     1dc:	01000000 	tsteq	r0, r0
     1e0:	00006c40 	andeq	r6, r0, r0, asr #24
     1e4:	04070000 	streq	r0, [r7]
     1e8:	746e6905 	strbtvc	r6, [lr], #-2309	; 0x905
     1ec:	79040800 	stmdbvc	r4, {fp}
     1f0:	09000000 	stmdbeq	r0, {}
     1f4:	005d0801 	subseq	r0, sp, r1, lsl #16
     1f8:	04090000 	streq	r0, [r9]
     1fc:	00039007 	andeq	r9, r3, r7
     200:	00eb0a00 	rsceq	r0, fp, r0, lsl #20
     204:	34010000 	strcc	r0, [r1]
     208:	ce020101 	adfgts	f0, f2, f1
     20c:	01000000 	tsteq	r0, r0
     210:	006c015e 	rsbeq	r0, ip, lr, asr r1
     214:	e2010000 	and	r0, r1, #0
     218:	04000000 	streq	r0, [r0]
     21c:	000000f8 	strdeq	r0, [r0], -r8
     220:	00805e01 	addeq	r5, r0, r1, lsl #28
     224:	e6040000 	str	r0, [r4], -r0
     228:	01000000 	tsteq	r0, r0
     22c:	0000805e 	andeq	r8, r0, lr, asr r0
     230:	00860400 	addeq	r0, r6, r0, lsl #8
     234:	5e010000 	cdppl	0, 0, cr0, cr1, cr0, {0}
     238:	0000006c 	andeq	r0, r0, ip, rrx
     23c:	01006905 	tsteq	r0, r5, lsl #18
     240:	00006c60 	andeq	r6, r0, r0, ror #24
     244:	75620500 	strbvc	r0, [r2, #-1280]!	; 0x500
     248:	61010066 	tstvs	r1, r6, rrx
     24c:	00000073 	andeq	r0, r0, r3, ror r0
     250:	0000c306 	andeq	ip, r0, r6, lsl #6
     254:	e2620100 	rsb	r0, r2, #0
     258:	00000000 	andeq	r0, r0, r0
     25c:	95070409 	strls	r0, [r7, #-1033]	; 0x409
     260:	0b000003 	bleq	274 <TEXT_BASE-0x33f7fd8c>
     264:	00009c01 	andeq	r9, r0, r1, lsl #24
     268:	016d0100 	cmneq	sp, r0, lsl #2
     26c:	0000006c 	andeq	r0, r0, ip, rrx
     270:	33f80400 	mvnscc	r0, #0
     274:	33f8058c 	mvnscc	r0, #587202560	; 0x23000000
     278:	000000c8 	andeq	r0, r0, r8, asr #1
     27c:	000001b7 	undefined instruction 0x000001b7
     280:	0000860c 	andeq	r8, r0, ip, lsl #12
     284:	6c6f0100 	stfvse	f0, [pc]
     288:	00000000 	andeq	r0, r0, r0
     28c:	0100690d 	tsteq	r0, sp, lsl #18
     290:	00006c70 	andeq	r6, r0, r0, ror ip
     294:	690e0000 	stmdbvs	lr, {}
     298:	71010064 	tstvc	r1, r4, rrx
     29c:	000001b7 	undefined instruction 0x000001b7
     2a0:	000000f4 	strdeq	r0, [r0], -r4
     2a4:	0000870f 	andeq	r8, r0, pc, lsl #14
     2a8:	f8043400 	undefined instruction 0xf8043400
     2ac:	00000033 	andeq	r0, r0, r3, lsr r0
     2b0:	107c0100 	rsbsne	r0, ip, r0, lsl #2
     2b4:	00000090 	muleq	r0, r0, r0
     2b8:	33f804a0 	mvnscc	r0, #-1610612736	; 0xa0000000
     2bc:	00000020 	andeq	r0, r0, r0, lsr #32
     2c0:	b7118101 	ldrlt	r8, [r1, -r1, lsl #2]
     2c4:	11000000 	tstne	r0, r0
     2c8:	000000ac 	andeq	r0, r0, ip, lsr #1
     2cc:	0000a111 	andeq	sl, r0, r1, lsl r1
     2d0:	00381200 	eorseq	r1, r8, r0, lsl #4
     2d4:	c2130000 	andsgt	r0, r3, #0
     2d8:	1e000000 	cdpne	0, 0, cr0, cr0, cr0, {0}
     2dc:	13000001 	movwne	r0, #1
     2e0:	000000cb 	andeq	r0, r0, fp, asr #1
     2e4:	00000148 	andeq	r0, r0, r8, asr #2
     2e8:	0000d614 	andeq	sp, r0, r4, lsl r6
     2ec:	00251000 	eoreq	r1, r5, r0
     2f0:	04a00000 	strteq	r0, [r0]
     2f4:	005033f8 	ldrsheq	r3, [r0], #-56	; 0xffffffc8
     2f8:	68010000 	stmdavs	r1, {}
     2fc:	00004115 	andeq	r4, r0, r5, lsl r1
     300:	00018b00 	andeq	r8, r1, r0, lsl #22
     304:	004c1600 	subeq	r1, ip, r0, lsl #12
     308:	55010000 	strpl	r0, [r1]
     30c:	00003615 	andeq	r3, r0, r5, lsl r6
     310:	0001f000 	andeq	pc, r1, r0
     314:	00881200 	addeq	r1, r8, r0, lsl #4
     318:	57130000 	ldrpl	r0, [r3, -r0]
     31c:	0e000000 	cdpeq	0, 0, cr0, cr0, cr0, {0}
     320:	13000002 	movwne	r0, #2
     324:	00000060 	andeq	r0, r0, r0, rrx
     328:	00000221 	andeq	r0, r0, r1, lsr #4
     32c:	00000000 	andeq	r0, r0, r0
     330:	00791700 	rsbseq	r1, r9, r0, lsl #14
     334:	3b000000 	blcc	33c <TEXT_BASE-0x33f7fcc4>
     338:	02000001 	andeq	r0, r0, #1
     33c:	00023000 	andeq	r3, r2, r0
     340:	46010400 	strmi	r0, [r1], -r0, lsl #8
     344:	01000000 	tsteq	r0, r0
     348:	000002fe 	strdeq	r0, [r0], -lr
     34c:	0000010e 	andeq	r0, r0, lr, lsl #2
     350:	33f8058c 	mvnscc	r0, #587202560	; 0x23000000
     354:	33f8064c 	mvnscc	r0, #79691776	; 0x4c00000
     358:	0000017b 	andeq	r0, r0, fp, ror r1
     35c:	95070402 	strls	r0, [r7, #-1026]	; 0x402
     360:	03000003 	movweq	r0, #3
     364:	00000106 	andeq	r0, r0, r6, lsl #2
     368:	00370e02 	eorseq	r0, r7, r2, lsl #28
     36c:	04040000 	streq	r0, [r4]
     370:	0000003d 	andeq	r0, r0, sp, lsr r0
     374:	66080102 	strvs	r0, [r8], -r2, lsl #2
     378:	05000000 	streq	r0, [r0]
     37c:	00029801 	andeq	r9, r2, r1, lsl #16
     380:	01100100 	tsteq	r0, r0, lsl #2
     384:	0000009c 	muleq	r0, ip, r0
     388:	33f8058c 	mvnscc	r0, #587202560	; 0x23000000
     38c:	33f805e4 	mvnscc	r0, #956301312	; 0x39000000
     390:	00000253 	andeq	r0, r0, r3, asr r2
     394:	0000009c 	muleq	r0, ip, r0
     398:	746d6606 	strbtvc	r6, [sp], #-1542	; 0x606
     39c:	a3100100 	tstge	r0, #0
     3a0:	02000000 	andeq	r0, r0, #0
     3a4:	08077091 	stmdaeq	r7, {r0, r4, r7, ip, sp, lr}
     3a8:	12010069 	andne	r0, r1, #105	; 0x69
     3ac:	0000009c 	muleq	r0, ip, r0
     3b0:	0000027f 	andeq	r0, r0, pc, ror r2
     3b4:	6e656c08 	cdpvs	12, 6, cr6, cr5, cr8, {0}
     3b8:	9c130100 	ldflss	f0, [r3], {0}
     3bc:	a9000000 	stmdbge	r0, {}
     3c0:	09000002 	stmdbeq	r0, {r1}
     3c4:	00000101 	andeq	r0, r0, r1, lsl #2
     3c8:	002c1401 	eoreq	r1, ip, r1, lsl #8
     3cc:	91030000 	tstls	r3, r0
     3d0:	0a009f4c 	beq	28108 <TEXT_BASE-0x33f57ef8>
     3d4:	6e690504 	cdpvs	5, 6, cr0, cr9, cr4, {0}
     3d8:	04040074 	streq	r0, [r4], #-116	; 0x74
     3dc:	000000a9 	andeq	r0, r0, r9, lsr #1
     3e0:	00003d0b 	andeq	r3, r0, fp, lsl #26
     3e4:	c6010500 	strgt	r0, [r1], -r0, lsl #10
     3e8:	01000002 	tsteq	r0, r2
     3ec:	009c0122 	addseq	r0, ip, r2, lsr #2
     3f0:	05e40000 	strbeq	r0, [r4]!
     3f4:	064c33f8 	undefined instruction 0x064c33f8
     3f8:	02c733f8 	sbceq	r3, r7, #-536870909	; 0xe0000003
     3fc:	01040000 	tsteq	r4, r0
     400:	66060000 	strvs	r0, [r6], -r0
     404:	0100746d 	tsteq	r0, sp, ror #8
     408:	0000a322 	andeq	sl, r0, r2, lsr #6
     40c:	70910200 	addsvc	r0, r1, r0, lsl #4
     410:	00690807 	rsbeq	r0, r9, r7, lsl #16
     414:	009c2401 	addseq	r2, ip, r1, lsl #8
     418:	02f30000 	rscseq	r0, r3, #0
     41c:	63080000 	movwvs	r0, #32768	; 0x8000
     420:	04250100 	strteq	r0, [r5], #-256	; 0x100
     424:	1d000001 	stcne	0, cr0, [r0, #-4]
     428:	0c000003 	stceq	0, cr0, [r0], {3}
     42c:	00000101 	andeq	r0, r0, r1, lsl #2
     430:	002c2601 	eoreq	r2, ip, r1, lsl #12
     434:	03460000 	movteq	r0, #24576	; 0x6000
     438:	02000000 	andeq	r0, r0, #0
     43c:	005d0801 	subseq	r0, sp, r1, lsl #16
     440:	3d0d0000 	stccc	0, cr0, [sp]
     444:	1c000000 	stcne	0, cr0, [r0], {0}
     448:	0e000001 	cdpeq	0, 0, cr0, cr0, cr1, {0}
     44c:	00000025 	andeq	r0, r0, r5, lsr #32
     450:	090003ff 	stmdbeq	r0, {r0, r1, r2, r3, r4, r5, r6, r7, r8, r9}
     454:	00000144 	andeq	r0, r0, r4, asr #2
     458:	010b0c01 	tsteq	fp, r1, lsl #24
     45c:	03050000 	movweq	r0, #20480	; 0x5000
     460:	33f823d0 	mvnscc	r2, #1073741827	; 0x40000003
     464:	00014f09 	andeq	r4, r1, r9, lsl #30
     468:	0b0d0100 	bleq	340870 <TEXT_BASE-0x33c3f790>
     46c:	05000001 	streq	r0, [r0, #-1]
     470:	f827d003 	undefined instruction 0xf827d003
     474:	0a790033 	beq	1e40548 <TEXT_BASE-0x3213fab8>
     478:	00020000 	andeq	r0, r2, r0
     47c:	000002e3 	andeq	r0, r0, r3, ror #5
     480:	00460104 	subeq	r0, r6, r4, lsl #2
     484:	24010000 	strcs	r0, [r1]
     488:	0e000002 	cdpeq	0, 0, cr0, cr0, cr2, {0}
     48c:	4c000001 	stcmi	0, cr0, [r0], {1}
     490:	d033f806 	eorsle	pc, r3, r6, lsl #16
     494:	f133f80d 	undefined instruction 0xf133f80d
     498:	02000001 	andeq	r0, r0, #1
     49c:	00000168 	andeq	r0, r0, r8, ror #2
     4a0:	00300b04 	eorseq	r0, r0, r4, lsl #22
     4a4:	04030000 	streq	r0, [r3]
     4a8:	00039507 	andeq	r9, r3, r7, lsl #10
     4ac:	01b20400 	undefined instruction 0x01b20400
     4b0:	22020000 	andcs	r0, r2, #0
     4b4:	00005201 	andeq	r5, r0, r1, lsl #4
     4b8:	00520300 	subseq	r0, r2, r0, lsl #6
     4bc:	63050000 	movwvs	r0, #20480	; 0x5000
     4c0:	52220200 	eorpl	r0, r2, #0
     4c4:	00000000 	andeq	r0, r0, r0
     4c8:	5d080103 	stfpls	f0, [r8, #-12]
     4cc:	06000000 	streq	r0, [r0], -r0
     4d0:	0001bc01 	andeq	fp, r1, r1, lsl #24
     4d4:	01dd0100 	bicseq	r0, sp, r0, lsl #2
     4d8:	00000025 	andeq	r0, r0, r5, lsr #32
     4dc:	00007f01 	andeq	r7, r0, r1, lsl #30
     4e0:	00730500 	rsbseq	r0, r3, r0, lsl #10
     4e4:	007fdd01 	rsbseq	sp, pc, r1, lsl #26
     4e8:	73070000 	movwvc	r0, #28672	; 0x7000
     4ec:	df010063 	svcle	0x00010063
     4f0:	0000007f 	andeq	r0, r0, pc, ror r0
     4f4:	85040800 	strhi	r0, [r4, #-2048]	; 0x800
     4f8:	09000000 	stmdbeq	r0, {}
     4fc:	0000008a 	andeq	r0, r0, sl, lsl #1
     500:	66080103 	strvs	r0, [r8], -r3, lsl #2
     504:	0a000000 	beq	50c <TEXT_BASE-0x33f7faf4>
     508:	0001eb01 	andeq	lr, r1, r1, lsl #22
     50c:	01180100 	tsteq	r8, r0, lsl #2
     510:	0000d301 	andeq	sp, r0, r1, lsl #6
     514:	00d30100 	sbcseq	r0, r3, r0, lsl #2
     518:	630b0000 	movwvs	r0, #45056	; 0xb000
     51c:	18010073 	stmdane	r1, {r0, r1, r4, r5, r6}
     520:	00007f01 	andeq	r7, r0, r1, lsl #30
     524:	74630b00 	strbtvc	r0, [r3], #-2816	; 0xb00
     528:	01180100 	tsteq	r8, r0, lsl #2
     52c:	0000007f 	andeq	r0, r0, pc, ror r0
     530:	3163730c 	cmncc	r3, ip, lsl #6
     534:	011a0100 	tsteq	sl, r0, lsl #2
     538:	0000007f 	andeq	r0, r0, pc, ror r0
     53c:	3263730c 	rsbcc	r7, r3, #805306368	; 0x30000000
     540:	011a0100 	tsteq	sl, r0, lsl #2
     544:	0000007f 	andeq	r0, r0, pc, ror r0
     548:	8a040800 	bhi	102550 <TEXT_BASE-0x33e7dab0>
     54c:	0a000000 	beq	554 <TEXT_BASE-0x33f7faac>
     550:	0001f301 	andeq	pc, r1, r1, lsl #6
     554:	01c40100 	biceq	r0, r4, r0, lsl #2
     558:	00013301 	andeq	r3, r1, r1, lsl #6
     55c:	01330100 	teqeq	r3, r0, lsl #2
     560:	630b0000 	movwvs	r0, #45056	; 0xb000
     564:	c4010073 	strgt	r0, [r1], #-115	; 0x73
     568:	00013a01 	andeq	r3, r1, r1, lsl #20
     56c:	74630b00 	strbtvc	r0, [r3], #-2816	; 0xb00
     570:	01c40100 	biceq	r0, r4, r0, lsl #2
     574:	0000013a 	andeq	r0, r0, sl, lsr r1
     578:	0001760d 	andeq	r7, r1, sp, lsl #12
     57c:	01c40100 	biceq	r0, r4, r0, lsl #2
     580:	00000025 	andeq	r0, r0, r5, lsr #32
     584:	3175730c 	cmncc	r5, ip, lsl #6
     588:	01c60100 	biceq	r0, r6, r0, lsl #2
     58c:	00000141 	andeq	r0, r0, r1, asr #2
     590:	3275730c 	rsbscc	r7, r5, #805306368	; 0x30000000
     594:	01c60100 	biceq	r0, r6, r0, lsl #2
     598:	00000141 	andeq	r0, r0, r1, asr #2
     59c:	7365720c 	cmnvc	r5, #-1073741824	; 0xc0000000
     5a0:	01c70100 	biceq	r0, r7, r0, lsl #2
     5a4:	00000133 	andeq	r0, r0, r3, lsr r1
     5a8:	05040e00 	streq	r0, [r4, #-3584]	; 0xe00
     5ac:	00746e69 	rsbseq	r6, r4, r9, ror #28
     5b0:	01400408 	cmpeq	r0, r8, lsl #8
     5b4:	080f0000 	stmdaeq	pc, {}
     5b8:	00014704 	andeq	r4, r1, r4, lsl #14
     5bc:	00520900 	subseq	r0, r2, r0, lsl #18
     5c0:	01100000 	tsteq	r0, r0
     5c4:	00000234 	andeq	r0, r0, r4, lsr r2
     5c8:	33011e01 	movwcc	r1, #7681	; 0x1e01
     5cc:	4c000001 	stcmi	0, cr0, [r0], {1}
     5d0:	d833f806 	ldmdale	r3!, {r1, r2, fp, ip, sp, lr, pc}
     5d4:	6633f806 	ldrtvs	pc, [r3], -r6, lsl #16
     5d8:	e7000003 	str	r0, [r0, -r3]
     5dc:	11000001 	tstne	r0, r1
     5e0:	01003173 	tsteq	r0, r3, ror r1
     5e4:	00007f1e 	andeq	r7, r0, lr, lsl pc
     5e8:	00038600 	andeq	r8, r3, r0, lsl #12
     5ec:	32731100 	rsbscc	r1, r3, #0
     5f0:	7f1e0100 	svcvc	0x001e0100
     5f4:	99000000 	stmdbls	r0, {}
     5f8:	11000003 	tstne	r0, r3
     5fc:	006e656c 	rsbeq	r6, lr, ip, ror #10
     600:	00251e01 	eoreq	r1, r5, r1, lsl #28
     604:	03ac0000 	undefined instruction 0x03ac0000
     608:	63120000 	tstvs	r2, #0
     60c:	21010031 	tstcs	r1, r1, lsr r0
     610:	00000052 	andeq	r0, r0, r2, asr r0
     614:	000003bf 	undefined instruction 0x000003bf
     618:	00326312 	eorseq	r6, r2, r2, lsl r3
     61c:	00522101 	subseq	r2, r2, r1, lsl #2
     620:	03f40000 	mvnseq	r0, #0
     624:	37130000 	ldrcc	r0, [r3, -r0]
     628:	5c000000 	stcpl	0, cr0, [r0], {0}
     62c:	c033f806 	eorsgt	pc, r3, r6, lsl #16
     630:	01000000 	tsteq	r0, r0
     634:	0001cd2e 	andeq	ip, r1, lr, lsr #26
     638:	00481400 	subeq	r1, r8, r0, lsl #8
     63c:	04290000 	strteq	r0, [r9]
     640:	15000000 	strne	r0, [r0]
     644:	00000037 	andeq	r0, r0, r7, lsr r0
     648:	33f80694 	mvnscc	r0, #155189248	; 0x9400000
     64c:	000000e0 	andeq	r0, r0, r0, ror #1
     650:	48142f01 	ldmdami	r4, {r0, r8, r9, sl, fp, sp}
     654:	47000000 	strmi	r0, [r0, -r0]
     658:	00000004 	andeq	r0, r0, r4
     65c:	ce011600 	cfmadd32gt	mvax0, mvfx1, mvfx1, mvfx0
     660:	01000001 	tsteq	r0, r1
     664:	00d30140 	sbcseq	r0, r3, r0, asr #2
     668:	06d80000 	ldrbeq	r0, [r8], r0
     66c:	06f433f8 	undefined instruction 0x06f433f8
     670:	7d0233f8 	stcvc	3, cr3, [r2, #-992]	; 0xfffffc20
     674:	00022f00 	andeq	r2, r2, r0, lsl #30
     678:	01c31700 	biceq	r1, r3, r0, lsl #14
     67c:	40010000 	andmi	r0, r1, r0
     680:	000000d3 	ldrdeq	r0, [r0], -r3
     684:	00000465 	andeq	r0, r0, r5, ror #8
     688:	63727311 	cmnvs	r2, #1140850688	; 0x44000000
     68c:	7f400100 	svcvc	0x00400100
     690:	78000000 	stmdavc	r0, {}
     694:	18000004 	stmdane	r0, {r2}
     698:	00706d74 	rsbseq	r6, r0, r4, ror sp
     69c:	00d34201 	sbcseq	r4, r3, r1, lsl #4
     6a0:	50010000 	andpl	r0, r1, r0
     6a4:	dc011600 	stcle	6, cr1, [r1], {0}
     6a8:	01000001 	tsteq	r0, r1
     6ac:	00d30155 	sbcseq	r0, r3, r5, asr r1
     6b0:	06f40000 	ldrbteq	r0, [r4], r0
     6b4:	071c33f8 	undefined instruction 0x071c33f8
     6b8:	7d0233f8 	stcvc	3, cr3, [r2, #-992]	; 0xfffffc20
     6bc:	00028600 	andeq	r8, r2, r0, lsl #12
     6c0:	01c31700 	biceq	r1, r3, r0, lsl #14
     6c4:	55010000 	strpl	r0, [r1]
     6c8:	000000d3 	ldrdeq	r0, [r0], -r3
     6cc:	0000048b 	andeq	r0, r0, fp, lsl #9
     6d0:	63727311 	cmnvs	r2, #1140850688	; 0x44000000
     6d4:	7f550100 	svcvc	0x00550100
     6d8:	9e000000 	cdpls	0, 0, cr0, cr0, cr0, {0}
     6dc:	17000004 	strne	r0, [r0, -r4]
     6e0:	00000176 	andeq	r0, r0, r6, ror r1
     6e4:	00255501 	eoreq	r5, r5, r1, lsl #10
     6e8:	04b10000 	ldrteq	r0, [r1]
     6ec:	74180000 	ldrvc	r0, [r8]
     6f0:	0100706d 	tsteq	r0, sp, rrx
     6f4:	0000d357 	andeq	sp, r0, r7, asr r3
     6f8:	00500100 	subseq	r0, r0, r0, lsl #2
     6fc:	01d50116 	bicseq	r0, r5, r6, lsl r1
     700:	66010000 	strvs	r0, [r1], -r0
     704:	0000d301 	andeq	sp, r0, r1, lsl #6
     708:	f8071c00 	undefined instruction 0xf8071c00
     70c:	f8075c33 	undefined instruction 0xf8075c33
     710:	007d0233 	rsbseq	r0, sp, r3, lsr r2
     714:	000002ce 	andeq	r0, r0, lr, asr #5
     718:	0001c317 	andeq	ip, r1, r7, lsl r3
     71c:	d3660100 	cmnle	r6, #0
     720:	c4000000 	strgt	r0, [r0]
     724:	11000004 	tstne	r0, r4
     728:	00637273 	rsbeq	r7, r3, r3, ror r2
     72c:	007f6601 	rsbseq	r6, pc, r1, lsl #12
     730:	04ed0000 	strbteq	r0, [sp]
     734:	74180000 	ldrvc	r0, [r8]
     738:	0100706d 	tsteq	r0, sp, rrx
     73c:	0000d368 	andeq	sp, r0, r8, ror #6
     740:	00500100 	subseq	r0, r0, r0, lsl #2
     744:	01fa0110 	mvnseq	r0, r0, lsl r1
     748:	7d010000 	stcvc	0, cr0, [r1]
     74c:	0000d301 	andeq	sp, r0, r1, lsl #6
     750:	f8075c00 	undefined instruction 0xf8075c00
     754:	f807bc33 	undefined instruction 0xf807bc33
     758:	00050033 	andeq	r0, r5, r3, lsr r0
     75c:	00032600 	andeq	r2, r3, r0, lsl #12
     760:	01c31700 	biceq	r1, r3, r0, lsl #14
     764:	7d010000 	stcvc	0, cr0, [r1]
     768:	000000d3 	ldrdeq	r0, [r0], -r3
     76c:	00000520 	andeq	r0, r0, r0, lsr #10
     770:	63727311 	cmnvs	r2, #1140850688	; 0x44000000
     774:	7f7d0100 	svcvc	0x007d0100
     778:	49000000 	stmdbmi	r0, {}
     77c:	17000005 	strne	r0, [r0, -r5]
     780:	00000176 	andeq	r0, r0, r6, ror r1
     784:	00257d01 	eoreq	r7, r5, r1, lsl #26
     788:	055c0000 	ldrbeq	r0, [ip]
     78c:	74180000 	ldrvc	r0, [r8]
     790:	0100706d 	tsteq	r0, sp, rrx
     794:	0000d37f 	andeq	sp, r0, pc, ror r3
     798:	00500100 	subseq	r0, r0, r0, lsl #2
     79c:	020f0116 	andeq	r0, pc, #-2147483643	; 0x80000005
     7a0:	96010000 	strls	r0, [r1], -r0
     7a4:	00013301 	andeq	r3, r1, r1, lsl #6
     7a8:	f807bc00 	undefined instruction 0xf807bc00
     7ac:	f807f833 	undefined instruction 0xf807f833
     7b0:	007d0233 	rsbseq	r0, sp, r3, lsr r2
     7b4:	0000036e 	andeq	r0, r0, lr, ror #6
     7b8:	00736311 	rsbseq	r6, r3, r1, lsl r3
     7bc:	007f9601 	rsbseq	r9, pc, r1, lsl #12
     7c0:	056f0000 	strbeq	r0, [pc, #0]!	; 7c8 <TEXT_BASE-0x33f7f838>
     7c4:	63110000 	tstvs	r1, #0
     7c8:	96010074 	undefined instruction 0x96010074
     7cc:	0000007f 	andeq	r0, r0, pc, ror r0
     7d0:	00000582 	andeq	r0, r0, r2, lsl #11
     7d4:	00023d19 	andeq	r3, r2, r9, lsl sp
     7d8:	6e980100 	fmlvse	f0, f0, f0
     7dc:	95000003 	strls	r0, [r0, #-3]
     7e0:	00000005 	andeq	r0, r0, r5
     7e4:	5f060103 	svcpl	0x00060103
     7e8:	16000000 	strne	r0, [r0], -r0
     7ec:	00024301 	andeq	r4, r2, r1, lsl #6
     7f0:	01aa0100 	undefined instruction 0x01aa0100
     7f4:	00000133 	andeq	r0, r0, r3, lsr r1
     7f8:	33f807f8 	mvnscc	r0, #65011712	; 0x3e00000
     7fc:	33f80868 	mvnscc	r0, #6815744	; 0x680000
     800:	cc007d02 	stcgt	13, cr7, [r0], {2}
     804:	11000003 	tstne	r0, r3
     808:	01007363 	tsteq	r0, r3, ror #6
     80c:	00007faa 	andeq	r7, r0, sl, lsr #31
     810:	0005b300 	andeq	fp, r5, r0, lsl #6
     814:	74631100 	strbtvc	r1, [r3], #-256	; 0x100
     818:	7faa0100 	svcvc	0x00aa0100
     81c:	d3000000 	movwle	r0, #0
     820:	17000005 	strne	r0, [r0, -r5]
     824:	00000176 	andeq	r0, r0, r6, ror r1
     828:	0025aa01 	eoreq	sl, r5, r1, lsl #20
     82c:	05f30000 	ldrbeq	r0, [r3]!
     830:	3d190000 	ldccc	0, cr0, [r9]
     834:	01000002 	tsteq	r0, r2
     838:	00036eac 	andeq	r6, r3, ip, lsr #29
     83c:	00061e00 	andeq	r1, r6, r0, lsl #28
     840:	01160000 	tsteq	r6, r0
     844:	00000199 	muleq	r0, r9, r1
     848:	d301be01 	movwle	fp, #7681	; 0x1e01
     84c:	68000000 	stmdavs	r0, {}
     850:	b833f808 	ldmdalt	r3!, {r3, fp, ip, sp, lr, pc}
     854:	0233f808 	eorseq	pc, r3, #524288	; 0x80000
     858:	0403007d 	streq	r0, [r3], #-125	; 0x7d
     85c:	73110000 	tstvc	r1, #0
     860:	7fbe0100 	svcvc	0x00be0100
     864:	6b000000 	blvs	86c <TEXT_BASE-0x33f7f794>
     868:	11000006 	tstne	r0, r6
     86c:	be010063 	cdplt	0, 0, cr0, cr1, cr3, {3}
     870:	00000133 	andeq	r0, r0, r3, lsr r1
     874:	000006ac 	andeq	r0, r0, ip, lsr #13
     878:	52011600 	andpl	r1, r1, #0
     87c:	01000002 	tsteq	r0, r2
     880:	00d301cd 	sbcseq	r0, r3, sp, asr #3
     884:	08b80000 	ldmeq	r8!, {}
     888:	090c33f8 	stmdbeq	ip, {r3, r4, r5, r6, r7, r8, r9, ip, sp}
     88c:	7d0233f8 	stcvc	3, cr3, [r2, #-992]	; 0xfffffc20
     890:	00046f00 	andeq	r6, r4, r0, lsl #30
     894:	00731100 	rsbseq	r1, r3, r0, lsl #2
     898:	007fcd01 	rsbseq	ip, pc, r1, lsl #26
     89c:	06bf0000 	ldrteq	r0, [pc], r0
     8a0:	63110000 	tstvs	r1, #0
     8a4:	33cd0100 	biccc	r0, sp, #0
     8a8:	dd000001 	stcle	0, cr0, [r0, #-4]
     8ac:	12000006 	andne	r0, r0, #6
     8b0:	cf010070 	svcgt	0x00010070
     8b4:	0000007f 	andeq	r0, r0, pc, ror r0
     8b8:	000006f0 	strdeq	r0, [r0], -r0
     8bc:	00005915 	andeq	r5, r0, r5, lsl r9
     8c0:	f808b800 	undefined instruction 0xf808b800
     8c4:	0000f833 	andeq	pc, r0, r3, lsr r8
     8c8:	14cf0100 	strbne	r0, [pc], #256	; 8d0 <TEXT_BASE-0x33f7f730>
     8cc:	0000006b 	andeq	r0, r0, fp, rrx
     8d0:	0000071e 	andeq	r0, r0, lr, lsl r7
     8d4:	0001181a 	andeq	r1, r1, sl, lsl r8
     8d8:	00741b00 	rsbseq	r1, r4, r0, lsl #22
     8dc:	073c0000 	ldreq	r0, [ip, -r0]!
     8e0:	00000000 	andeq	r0, r0, r0
     8e4:	00591c00 	subseq	r1, r9, r0, lsl #24
     8e8:	090c0000 	stmdbeq	ip, {}
     8ec:	093c33f8 	ldmdbeq	ip!, {r3, r4, r5, r6, r7, r8, r9, ip, sp}
     8f0:	7d0233f8 	stcvc	3, cr3, [r2, #-992]	; 0xfffffc20
     8f4:	00049600 	andeq	r9, r4, r0, lsl #12
     8f8:	006b1400 	rsbeq	r1, fp, r0, lsl #8
     8fc:	07650000 	strbeq	r0, [r5, -r0]!
     900:	741b0000 	ldrvc	r0, [fp]
     904:	83000000 	movwhi	r0, #0
     908:	00000007 	andeq	r0, r0, r7
     90c:	02070116 	andeq	r0, r7, #-2147483643	; 0x80000005
     910:	ed010000 	stc	0, cr0, [r1]
     914:	00002501 	andeq	r2, r0, r1, lsl #10
     918:	f8093c00 	undefined instruction 0xf8093c00
     91c:	f8099433 	undefined instruction 0xf8099433
     920:	007d0233 	rsbseq	r0, sp, r3, lsr r2
     924:	000004dd 	ldrdeq	r0, [r0], -sp
     928:	01007311 	tsteq	r0, r1, lsl r3
     92c:	00007fed 	andeq	r7, r0, sp, ror #31
     930:	0007b700 	andeq	fp, r7, r0, lsl #14
     934:	01761700 	cmneq	r6, r0, lsl #14
     938:	ed010000 	stc	0, cr0, [r1]
     93c:	00000025 	andeq	r0, r0, r5, lsr #32
     940:	000007ca 	andeq	r0, r0, sl, asr #15
     944:	00637312 	rsbeq	r7, r3, r2, lsl r3
     948:	007fef01 	rsbseq	lr, pc, r1, lsl #30
     94c:	07dd0000 	ldrbeq	r0, [sp, r0]
     950:	10000000 	andne	r0, r0, r0
     954:	00021d01 	andeq	r1, r2, r1, lsl #26
     958:	01fe0100 	mvnseq	r0, r0, lsl #2
     95c:	00000025 	andeq	r0, r0, r5, lsr #32
     960:	33f80994 	mvnscc	r0, #2424832	; 0x250000
     964:	33f80a00 	mvnscc	r0, #0
     968:	0000081c 	andeq	r0, r0, ip, lsl r8
     96c:	00000543 	andeq	r0, r0, r3, asr #10
     970:	01007311 	tsteq	r0, r1, lsl r3
     974:	00007ffe 	strdeq	r7, [r0], -lr
     978:	00083c00 	andeq	r3, r8, r0, lsl #24
     97c:	01831700 	orreq	r1, r3, r0, lsl #14
     980:	fe010000 	cdp2	0, 0, cr0, cr1, cr0, {0}
     984:	0000007f 	andeq	r0, r0, pc, ror r0
     988:	0000084f 	andeq	r0, r0, pc, asr #16
     98c:	0100701d 	tsteq	r0, sp, lsl r0
     990:	007f0100 	rsbseq	r0, pc, r0, lsl #2
     994:	086d0000 	stmdaeq	sp!, {}^
     998:	611d0000 	tstvs	sp, r0
     99c:	01010100 	tsteq	r1, r0, lsl #2
     9a0:	0000007f 	andeq	r0, r0, pc, ror r0
     9a4:	00000880 	andeq	r0, r0, r0, lsl #17
     9a8:	0001761e 	andeq	r7, r1, lr, lsl r6
     9ac:	01020100 	tsteq	r2, r0, lsl #2
     9b0:	00000025 	andeq	r0, r0, r5, lsr #32
     9b4:	00000893 	muleq	r0, r3, r8
     9b8:	00911f00 	addseq	r1, r1, r0, lsl #30
     9bc:	0a000000 	beq	9c4 <TEXT_BASE-0x33f7f63c>
     9c0:	0a6033f8 	beq	180d9a8 <TEXT_BASE-0x32772658>
     9c4:	08b233f8 	ldmeq	r2!, {r3, r4, r5, r6, r7, r8, r9, ip, sp}
     9c8:	057b0000 	ldrbeq	r0, [fp]!
     9cc:	a4140000 	ldrge	r0, [r4]
     9d0:	d2000000 	andle	r0, r0, #0
     9d4:	20000008 	andcs	r0, r0, r8
     9d8:	000000af 	andeq	r0, r0, pc, lsr #1
     9dc:	ba1b5101 	blt	6d4de8 <TEXT_BASE-0x338ab218>
     9e0:	e5000000 	str	r0, [r0]
     9e4:	1b000008 	blne	a0c <TEXT_BASE-0x33f7f5f4>
     9e8:	000000c6 	andeq	r0, r0, r6, asr #1
     9ec:	000008f8 	strdeq	r0, [r0], -r8
     9f0:	ab012100 	blge	48df8 <TEXT_BASE-0x33f37208>
     9f4:	01000001 	tsteq	r0, r1
     9f8:	d301012e 	movwle	r0, #4398	; 0x112e
     9fc:	60000000 	andvs	r0, r0, r0
     a00:	2033f80a 	eorscs	pc, r3, sl, lsl #16
     a04:	0b33f80b 	bleq	cfea38 <TEXT_BASE-0x332815c8>
     a08:	0a000009 	beq	a34 <TEXT_BASE-0x33f7f5cc>
     a0c:	22000006 	andcs	r0, r0, #6
     a10:	2e010073 	mcrcs	0, 0, r0, cr1, cr3, {3}
     a14:	0000d301 	andeq	sp, r0, r1, lsl #6
     a18:	00092b00 	andeq	r2, r9, r0, lsl #22
     a1c:	74632200 	strbtvc	r2, [r3], #-512	; 0x200
     a20:	012e0100 	teqeq	lr, r0, lsl #2
     a24:	0000007f 	andeq	r0, r0, pc, ror r0
     a28:	00000949 	andeq	r0, r0, r9, asr #18
     a2c:	00022d1e 	andeq	r2, r2, lr, lsl sp
     a30:	01300100 	teqeq	r0, r0, lsl #2
     a34:	000000d3 	ldrdeq	r0, [r0], -r3
     a38:	00000967 	andeq	r0, r0, r7, ror #18
     a3c:	0002021e 	andeq	r0, r2, lr, lsl r2
     a40:	01300100 	teqeq	r0, r0, lsl #2
     a44:	000000d3 	ldrdeq	r0, [r0], -r3
     a48:	00000989 	andeq	r0, r0, r9, lsl #19
     a4c:	00009123 	andeq	r9, r0, r3, lsr #2
     a50:	f80a9c00 	undefined instruction 0xf80a9c00
     a54:	f80ad833 	undefined instruction 0xf80ad833
     a58:	013b0133 	teqeq	fp, r3, lsr r1
     a5c:	0000af24 	andeq	sl, r0, r4, lsr #30
     a60:	00a42400 	adceq	r2, r4, r0, lsl #8
     a64:	9c250000 	stcls	0, cr0, [r5]
     a68:	d833f80a 	ldmdale	r3!, {r1, r3, fp, ip, sp, lr, pc}
     a6c:	2633f80a 	ldrtcs	pc, [r3], -sl, lsl #16
     a70:	000000ba 	strheq	r0, [r0], -sl
     a74:	0000c61b 	andeq	ip, r0, fp, lsl r6
     a78:	0009a700 	andeq	sl, r9, r0, lsl #14
     a7c:	00000000 	andeq	r0, r0, r0
     a80:	01590121 	cmpeq	r9, r1, lsr #2
     a84:	4f010000 	svcmi	0x00010000
     a88:	00d30101 	sbcseq	r0, r3, r1, lsl #2
     a8c:	0b200000 	bleq	800a94 <TEXT_BASE-0x3377f56c>
     a90:	0ba433f8 	bleq	fe90da78 <MEM_CTL_BASE+0xb690da78>
     a94:	09ba33f8 	ldmibeq	sl!, {r3, r4, r5, r6, r7, r8, r9, ip, sp}
     a98:	069b0000 	ldreq	r0, [fp], r0
     a9c:	73220000 	teqvc	r2, #0
     aa0:	014f0100 	cmpeq	pc, r0, lsl #2
     aa4:	0000069b 	muleq	r0, fp, r6
     aa8:	000009da 	ldrdeq	r0, [r0], -sl
     aac:	00746327 	rsbseq	r6, r4, r7, lsr #6
     ab0:	7f014f01 	svcvc	0x00014f01
     ab4:	01000000 	tsteq	r0, r0
     ab8:	022d1e51 	eoreq	r1, sp, #1296	; 0x510
     abc:	51010000 	tstpl	r1, r0
     ac0:	0000d301 	andeq	sp, r0, r1, lsl #6
     ac4:	0009f800 	andeq	pc, r9, r0, lsl #16
     ac8:	6e651d00 	cdpvs	13, 6, cr1, cr5, cr0, {0}
     acc:	51010064 	tstpl	r1, r4, rrx
     ad0:	0000d301 	andeq	sp, r0, r1, lsl #6
     ad4:	000a1700 	andeq	r1, sl, r0, lsl #14
     ad8:	00912300 	addseq	r2, r1, r0, lsl #6
     adc:	0b300000 	bleq	c00ae4 <TEXT_BASE-0x3337f51c>
     ae0:	0b8033f8 	bleq	fe00dac8 <MEM_CTL_BASE+0xb600dac8>
     ae4:	560133f8 	undefined instruction 0x560133f8
     ae8:	00af2401 	adceq	r2, pc, r1, lsl #8
     aec:	a4240000 	strtge	r0, [r4]
     af0:	25000000 	strcs	r0, [r0]
     af4:	33f80b30 	mvnscc	r0, #49152	; 0xc000
     af8:	33f80b80 	mvnscc	r0, #131072	; 0x20000
     afc:	0000ba1b 	andeq	fp, r0, fp, lsl sl
     b00:	000a3500 	andeq	r3, sl, r0, lsl #10
     b04:	00c61b00 	sbceq	r1, r6, r0, lsl #22
     b08:	0a490000 	beq	1240b10 <TEXT_BASE-0x32d3f4f0>
     b0c:	00000000 	andeq	r0, r0, r0
     b10:	d3040800 	movwle	r0, #18432	; 0x4800
     b14:	28000000 	stmdacs	r0, {}
     b18:	00017c01 	andeq	r7, r1, r1, lsl #24
     b1c:	01680100 	cmneq	r8, r0, lsl #2
     b20:	0006fa01 	andeq	pc, r6, r1, lsl #20
     b24:	f80ba400 	undefined instruction 0xf80ba400
     b28:	f80bc833 	undefined instruction 0xf80bc833
     b2c:	007d0233 	rsbseq	r0, sp, r3, lsr r2
     b30:	000006fa 	strdeq	r0, [r0], -sl
     b34:	01007322 	tsteq	r0, r2, lsr #6
     b38:	06fa0168 	ldrbteq	r0, [sl], r8, ror #2
     b3c:	0a5c0000 	beq	1700b44 <TEXT_BASE-0x3287f4bc>
     b40:	63220000 	teqvs	r2, #0
     b44:	01680100 	cmneq	r8, r0, lsl #2
     b48:	00000133 	andeq	r0, r0, r3, lsr r1
     b4c:	00000a7a 	andeq	r0, r0, sl, ror sl
     b50:	00017629 	andeq	r7, r1, r9, lsr #12
     b54:	01680100 	cmneq	r8, r0, lsl #2
     b58:	00000025 	andeq	r0, r0, r5, lsr #32
     b5c:	00000a8d 	andeq	r0, r0, sp, lsl #21
     b60:	0073781d 	rsbseq	r7, r3, sp, lsl r8
     b64:	d3016a01 	movwle	r6, #6657	; 0x1a01
     b68:	a0000000 	andge	r0, r0, r0
     b6c:	0000000a 	andeq	r0, r0, sl
     b70:	012b042a 	teqeq	fp, sl, lsr #8
     b74:	000001c8 	andeq	r0, r0, r8, asr #3
     b78:	01018001 	tsteq	r1, r1
     b7c:	33f80bc8 	mvnscc	r0, #204800	; 0x32000
     b80:	33f80bec 	mvnscc	r0, #241664	; 0x3b000
     b84:	62007d02 	andvs	r7, r0, #128	; 0x80
     b88:	27000007 	strcs	r0, [r0, -r7]
     b8c:	00637273 	rsbeq	r7, r3, r3, ror r2
     b90:	3a018001 	bcc	60b9c <TEXT_BASE-0x33f1f464>
     b94:	01000001 	tsteq	r0, r1
     b98:	01c32c50 	biceq	r2, r3, r0, asr ip
     b9c:	80010000 	andhi	r0, r1, r0
     ba0:	0006fa01 	andeq	pc, r6, r1, lsl #20
     ba4:	29510100 	ldmdbcs	r1, {r8}^
     ba8:	00000176 	andeq	r0, r0, r6, ror r1
     bac:	25018001 	strcs	r8, [r1, #-1]
     bb0:	b3000000 	movwlt	r0, #0
     bb4:	1e00000a 	cdpne	0, 0, cr0, cr0, cr10, {0}
     bb8:	000001a0 	andeq	r0, r0, r0, lsr #3
     bbc:	d3018201 	movwle	r8, #4609	; 0x1201
     bc0:	c6000000 	strgt	r0, [r0], -r0
     bc4:	1e00000a 	cdpne	0, 0, cr0, cr0, cr10, {0}
     bc8:	000001e4 	andeq	r0, r0, r4, ror #3
     bcc:	d3018301 	movwle	r8, #4865	; 0x1301
     bd0:	d9000000 	stmdble	r0, {}
     bd4:	0000000a 	andeq	r0, r0, sl
     bd8:	02160128 	andseq	r0, r6, #10
     bdc:	94010000 	strls	r0, [r1]
     be0:	06fa0101 	ldrbteq	r0, [sl], r1, lsl #2
     be4:	0bec0000 	bleq	ffb00bec <MEM_CTL_BASE+0xb7b00bec>
     be8:	0c1033f8 	ldceq	3, cr3, [r0], {248}	; 0xf8
     bec:	7d0233f8 	stcvc	3, cr3, [r2, #-992]	; 0xfffffc20
     bf0:	0007ca00 	andeq	ip, r7, r0, lsl #20
     bf4:	01c32c00 	biceq	r2, r3, r0, lsl #24
     bf8:	94010000 	strls	r0, [r1]
     bfc:	0006fa01 	andeq	pc, r6, r1, lsl #20
     c00:	27500100 	ldrbcs	r0, [r0, -r0, lsl #2]
     c04:	00637273 	rsbeq	r7, r3, r3, ror r2
     c08:	3a019401 	bcc	65c14 <TEXT_BASE-0x33f1a3ec>
     c0c:	01000001 	tsteq	r0, r1
     c10:	01762951 	cmneq	r6, r1, asr r9
     c14:	94010000 	strls	r0, [r1]
     c18:	00002501 	andeq	r2, r0, r1, lsl #10
     c1c:	000aec00 	andeq	lr, sl, r0, lsl #24
     c20:	6d741d00 	ldclvs	13, cr1, [r4]
     c24:	96010070 	undefined instruction 0x96010070
     c28:	0000d301 	andeq	sp, r0, r1, lsl #6
     c2c:	000aff00 	andeq	pc, sl, r0, lsl #30
     c30:	00731d00 	rsbseq	r1, r3, r0, lsl #26
     c34:	d3019601 	movwle	r9, #5633	; 0x1601
     c38:	12000000 	andne	r0, r0, #0
     c3c:	0000000b 	andeq	r0, r0, fp
     c40:	01600128 	cmneq	r0, r8, lsr #2
     c44:	a8010000 	stmdage	r1, {}
     c48:	06fa0101 	ldrbteq	r0, [sl], r1, lsl #2
     c4c:	0c100000 	ldceq	0, cr0, [r0], {0}
     c50:	0c6033f8 	stcleq	3, cr3, [r0], #-992	; 0xfffffc20
     c54:	7d0233f8 	stcvc	3, cr3, [r2, #-992]	; 0xfffffc20
     c58:	00083400 	andeq	r3, r8, r0, lsl #8
     c5c:	01c32c00 	biceq	r2, r3, r0, lsl #24
     c60:	a8010000 	stmdage	r1, {}
     c64:	0006fa01 	andeq	pc, r6, r1, lsl #20
     c68:	22500100 	subscs	r0, r0, #0
     c6c:	00637273 	rsbeq	r7, r3, r3, ror r2
     c70:	3a01a801 	bcc	6ac7c <TEXT_BASE-0x33f15384>
     c74:	25000001 	strcs	r0, [r0, #-1]
     c78:	2900000b 	stmdbcs	r0, {r0, r1, r3}
     c7c:	00000176 	andeq	r0, r0, r6, ror r1
     c80:	2501a801 	strcs	sl, [r1, #-2049]	; 0x801
     c84:	38000000 	stmdacc	r0, {}
     c88:	1d00000b 	stcne	0, cr0, [r0, #-44]	; 0xffffffd4
     c8c:	00706d74 	rsbseq	r6, r0, r4, ror sp
     c90:	d301aa01 	movwle	sl, #6657	; 0x1a01
     c94:	65000000 	strvs	r0, [r0]
     c98:	1d00000b 	stcne	0, cr0, [r0, #-44]	; 0xffffffd4
     c9c:	aa010073 	bge	40e70 <TEXT_BASE-0x33f3f190>
     ca0:	0000d301 	andeq	sp, r0, r1, lsl #6
     ca4:	000b8800 	andeq	r8, fp, r0, lsl #16
     ca8:	d91f0000 	ldmdble	pc, {}
     cac:	60000000 	andvs	r0, r0, r0
     cb0:	b033f80c 	eorslt	pc, r3, ip, lsl #16
     cb4:	ab33f80c 	blge	cfecec <TEXT_BASE-0x33281314>
     cb8:	8000000b 	andhi	r0, r0, fp
     cbc:	14000008 	strne	r0, [r0], #-8
     cc0:	000000ec 	andeq	r0, r0, ip, ror #1
     cc4:	00000bcb 	andeq	r0, r0, fp, asr #23
     cc8:	0000f714 	andeq	pc, r0, r4, lsl r7
     ccc:	000bde00 	andeq	sp, fp, r0, lsl #28
     cd0:	01021400 	tsteq	r2, r0, lsl #8
     cd4:	0bf10000 	bleq	ffc40cdc <MEM_CTL_BASE+0xb7c40cdc>
     cd8:	0e1b0000 	cdpeq	0, 1, cr0, cr11, cr0, {0}
     cdc:	32000001 	andcc	r0, r0, #1
     ce0:	1b00000c 	blne	d18 <TEXT_BASE-0x33f7f2e8>
     ce4:	0000011a 	andeq	r0, r0, sl, lsl r1
     ce8:	00000c50 	andeq	r0, r0, r0, asr ip
     cec:	0001261b 	andeq	r2, r1, fp, lsl r6
     cf0:	000c6300 	andeq	r6, ip, r0, lsl #6
     cf4:	01280000 	teqeq	r8, r0
     cf8:	00000191 	muleq	r0, r1, r1
     cfc:	0101da01 	tsteq	r1, r1, lsl #20
     d00:	000006fa 	strdeq	r0, [r0], -sl
     d04:	33f80cb0 	mvnscc	r0, #45056	; 0xb000
     d08:	33f80cec 	mvnscc	r0, #60416	; 0xec00
     d0c:	d8007d02 	stmdale	r0, {r1, r8, sl, fp, ip, sp, lr}
     d10:	29000008 	stmdbcs	r0, {r3}
     d14:	000000fc 	strdeq	r0, [r0], -ip
     d18:	fa01da01 	blx	77524 <TEXT_BASE-0x33f08adc>
     d1c:	db000006 	blle	d3c <TEXT_BASE-0x33f7f2c4>
     d20:	2700000c 	strcs	r0, [r0, -ip]
     d24:	da010063 	ble	40eb8 <TEXT_BASE-0x33f3f148>
     d28:	00013301 	andeq	r3, r1, r1, lsl #6
     d2c:	29510100 	ldmdbcs	r1, {r8}^
     d30:	000000e6 	andeq	r0, r0, r6, ror #1
     d34:	2501da01 	strcs	sp, [r1, #-2561]	; 0xa01
     d38:	ee000000 	cdp	0, 0, cr0, cr0, cr0, {0}
     d3c:	1d00000c 	stcne	0, cr0, [r0, #-48]	; 0xffffffd0
     d40:	dc010070 	stcle	0, cr0, [r1], {112}	; 0x70
     d44:	0008d801 	andeq	sp, r8, r1, lsl #16
     d48:	000d0100 	andeq	r0, sp, r0, lsl #2
     d4c:	04080000 	streq	r0, [r8]
     d50:	00000052 	andeq	r0, r0, r2, asr r0
     d54:	016f0121 	cmneq	pc, r1, lsr #2
     d58:	ee010000 	cdp	0, 0, cr0, cr1, cr0, {0}
     d5c:	00d30101 	sbcseq	r0, r3, r1, lsl #2
     d60:	0cec0000 	stcleq	0, cr0, [ip]
     d64:	0d9c33f8 	ldceq	3, cr3, [ip, #992]	; 0x3e0
     d68:	0d1f33f8 	ldceq	3, cr3, [pc, #-992]	; 0xfffffc20
     d6c:	09e20000 	stmibeq	r2!, {}^
     d70:	73220000 	teqvc	r2, #0
     d74:	ee010031 	mcr	0, 0, r0, cr1, cr1, {1}
     d78:	00007f01 	andeq	r7, r0, r1, lsl #30
     d7c:	000d3f00 	andeq	r3, sp, r0, lsl #30
     d80:	32732200 	rsbscc	r2, r3, #0
     d84:	01ee0100 	mvneq	r0, r0, lsl #2
     d88:	0000007f 	andeq	r0, r0, pc, ror r0
     d8c:	00000d75 	andeq	r0, r0, r5, ror sp
     d90:	00316c1d 	eorseq	r6, r1, sp, lsl ip
     d94:	3301f001 	movwcc	pc, #4097	; 0x1001
     d98:	93000001 	movwls	r0, #1
     d9c:	1d00000d 	stcne	0, cr0, [r0, #-52]	; 0xffffffcc
     da0:	0100326c 	tsteq	r0, ip, ror #4
     da4:	013301f0 	undefined instruction 0x013301f0
     da8:	0dc00000 	stcleq	0, cr0, [r0]
     dac:	592d0000 	pushpl	{}
     db0:	ec000000 	stc	0, cr0, [r0], {0}
     db4:	3833f80c 	ldmdacc	r3!, {r2, r3, fp, ip, sp, lr, pc}
     db8:	01000001 	tsteq	r0, r1
     dbc:	096301f2 	stmdbeq	r3!, {r1, r4, r5, r6, r7, r8}^
     dc0:	6b200000 	blvs	800dc8 <TEXT_BASE-0x3377f238>
     dc4:	01000000 	tsteq	r0, r0
     dc8:	01501a51 	cmpeq	r0, r1, asr sl
     dcc:	741b0000 	ldrvc	r0, [fp]
     dd0:	e3000000 	movw	r0, #0
     dd4:	0000000d 	andeq	r0, r0, sp
     dd8:	00592e00 	subseq	r2, r9, r0, lsl #28
     ddc:	0d200000 	stceq	0, cr0, [r0]
     de0:	0d4833f8 	stcleq	3, cr3, [r8, #-992]	; 0xfffffc20
     de4:	f50133f8 	undefined instruction 0xf50133f8
     de8:	00099001 	andeq	r9, r9, r1
     dec:	006b2400 	rsbeq	r2, fp, r0, lsl #8
     df0:	20250000 	eorcs	r0, r5, r0
     df4:	4833f80d 	ldmdami	r3!, {r0, r2, r3, fp, ip, sp, lr, pc}
     df8:	1b33f80d 	blne	cfee34 <TEXT_BASE-0x332811cc>
     dfc:	00000074 	andeq	r0, r0, r4, ror r0
     e00:	00000e17 	andeq	r0, r0, r7, lsl lr
     e04:	d9230000 	stmdble	r3!, {}
     e08:	50000000 	andpl	r0, r0, r0
     e0c:	8433f80d 	ldrthi	pc, [r3], #-2061	; 0x80d
     e10:	0133f80d 	teqpeq	r3, sp, lsl #16
     e14:	021401f8 	andseq	r0, r4, #62	; 0x3e
     e18:	40000001 	andmi	r0, r0, r1
     e1c:	1400000e 	strne	r0, [r0], #-14
     e20:	000000f7 	strdeq	r0, [r0], -r7
     e24:	00000e76 	andeq	r0, r0, r6, ror lr
     e28:	0000ec14 	andeq	lr, r0, r4, lsl ip
     e2c:	000e8900 	andeq	r8, lr, r0, lsl #18
     e30:	0d502500 	cfldr64eq	mvdx2, [r0]
     e34:	0d8433f8 	stceq	3, cr3, [r4, #992]	; 0x3e0
     e38:	0e1b33f8 	mrceq	3, 0, r3, cr11, cr8, {7}
     e3c:	b4000001 	strlt	r0, [r0], #-1
     e40:	1b00000e 	blne	e80 <TEXT_BASE-0x33f7f180>
     e44:	0000011a 	andeq	r0, r0, sl, lsl r1
     e48:	00000edf 	ldrdeq	r0, [r0], -pc
     e4c:	0001261b 	andeq	r2, r1, fp, lsl r6
     e50:	000efd00 	andeq	pc, lr, r0, lsl #26
     e54:	00000000 	andeq	r0, r0, r0
     e58:	018a0128 	orreq	r0, sl, r8, lsr #2
     e5c:	0a010000 	beq	40e64 <TEXT_BASE-0x33f3f19c>
     e60:	06fa0102 	ldrbteq	r0, [sl], r2, lsl #2
     e64:	0d9c0000 	ldceq	0, cr0, [ip]
     e68:	0dd033f8 	ldcleq	3, cr3, [r0, #992]	; 0x3e0
     e6c:	7d0233f8 	stcvc	3, cr3, [r2, #-992]	; 0xfffffc20
     e70:	000a3800 	andeq	r3, sl, r0, lsl #16
     e74:	00732200 	rsbseq	r2, r3, r0, lsl #4
     e78:	3a020a01 	bcc	83684 <TEXT_BASE-0x33efc97c>
     e7c:	5b000001 	blpl	e88 <TEXT_BASE-0x33f7f178>
     e80:	2200000f 	andcs	r0, r0, #15
     e84:	0a010063 	beq	41018 <TEXT_BASE-0x33f3efe8>
     e88:	00013302 	andeq	r3, r1, r2, lsl #6
     e8c:	000f6e00 	andeq	r6, pc, r0, lsl #28
     e90:	006e2200 	rsbeq	r2, lr, r0, lsl #4
     e94:	25020a01 	strcs	r0, [r2, #-2561]	; 0xa01
     e98:	81000000 	tsthi	r0, r0
     e9c:	1d00000f 	stcne	0, cr0, [r0, #-60]	; 0xffffffc4
     ea0:	0c010070 	stceq	0, cr0, [r1], {112}	; 0x70
     ea4:	00014102 	andeq	r4, r1, r2, lsl #2
     ea8:	000f9400 	andeq	r9, pc, r0, lsl #8
     eac:	522f0000 	eorpl	r0, pc, #0
     eb0:	43000000 	movwmi	r0, #0
     eb4:	3000000a 	andcc	r0, r0, sl
     eb8:	024b3100 	subeq	r3, fp, #0
     ebc:	0f020000 	svceq	0x00020000
     ec0:	00000a38 	andeq	r0, r0, r8, lsr sl
     ec4:	a8310101 	ldmdage	r1!, {r0, r8}
     ec8:	03000001 	movweq	r0, #1
     ecc:	0000d30a 	andeq	sp, r0, sl, lsl #6
     ed0:	31010100 	tstcc	r1, r0, lsl #2
     ed4:	0000024b 	andeq	r0, r0, fp, asr #4
     ed8:	0a380f02 	beq	e04ae8 <TEXT_BASE-0x3317b518>
     edc:	01010000 	tsteq	r1, r0
     ee0:	0001a832 	andeq	sl, r1, r2, lsr r8
     ee4:	d3380100 	teqle	r8, #0
     ee8:	01000000 	tsteq	r0, r0
     eec:	2bd00305 	blcs	ff401b08 <MEM_CTL_BASE+0xb7401b08>
     ef0:	b20033f8 	andlt	r3, r0, #-536870909	; 0xe0000003
     ef4:	0200000a 	andeq	r0, r0, #10
     ef8:	0005ac00 	andeq	sl, r5, r0, lsl #24
     efc:	46010400 	strmi	r0, [r1], -r0, lsl #8
     f00:	01000000 	tsteq	r0, r0
     f04:	000002fc 	strdeq	r0, [r0], -ip
     f08:	0000010e 	andeq	r0, r0, lr, lsl #2
     f0c:	33f80dd0 	mvnscc	r0, #13312	; 0x3400
     f10:	33f82298 	mvnscc	r2, #-2147483639	; 0x80000009
     f14:	00000472 	andeq	r0, r0, r2, ror r4
     f18:	00016802 	andeq	r6, r1, r2, lsl #16
     f1c:	300b0300 	andcc	r0, fp, r0, lsl #6
     f20:	03000000 	movweq	r0, #0
     f24:	03950704 	orrseq	r0, r5, #1048576	; 0x100000
     f28:	06020000 	streq	r0, [r2], -r0
     f2c:	04000001 	streq	r0, [r0], #-1
     f30:	0000420e 	andeq	r4, r0, lr, lsl #4
     f34:	48040400 	stmdami	r4, {sl}
     f38:	03000000 	movweq	r0, #0
     f3c:	00660801 	rsbeq	r0, r6, r1, lsl #16
     f40:	a6050000 	strge	r0, [r5], -r0
     f44:	02000002 	andeq	r0, r0, #2
     f48:	006a0129 	rsbeq	r0, sl, r9, lsr #2
     f4c:	6a030000 	bvs	c0f54 <TEXT_BASE-0x33ebf0ac>
     f50:	06000000 	streq	r0, [r0], -r0
     f54:	29020063 	stmdbcs	r2, {r0, r1, r5, r6}
     f58:	0000006a 	andeq	r0, r0, sl, rrx
     f5c:	08010300 	stmdaeq	r1, {r8, r9}
     f60:	0000005d 	andeq	r0, r0, sp, asr r0
     f64:	00026a05 	andeq	r6, r2, r5, lsl #20
     f68:	01830100 	orreq	r0, r3, r0, lsl #2
     f6c:	00000095 	muleq	r0, r5, r0
     f70:	00009501 	andeq	r9, r0, r1, lsl #10
     f74:	00730600 	rsbseq	r0, r3, r0, lsl #12
     f78:	009c8301 	addseq	r8, ip, r1, lsl #6
     f7c:	69070000 	stmdbvs	r7, {}
     f80:	95850100 	strls	r0, [r5, #256]	; 0x100
     f84:	00000000 	andeq	r0, r0, r0
     f88:	69050408 	stmdbvs	r5, {r3, sl}
     f8c:	0400746e 	streq	r7, [r0], #-1134	; 0x46e
     f90:	0000a204 	andeq	sl, r0, r4, lsl #4
     f94:	a8040400 	stmdage	r4, {sl}
     f98:	09000000 	stmdbeq	r0, {}
     f9c:	00000048 	andeq	r0, r0, r8, asr #32
     fa0:	0003310a 	andeq	r3, r3, sl, lsl #2
     fa4:	01940100 	orrseq	r0, r4, r0, lsl #2
     fa8:	00000042 	andeq	r0, r0, r2, asr #32
     fac:	33f80dd0 	mvnscc	r0, #13312	; 0x3400
     fb0:	33f810c8 	mvnscc	r1, #200	; 0xc8
     fb4:	00000fd7 	ldrdeq	r0, [r0], -r7
     fb8:	000001db 	ldrdeq	r0, [r0], -fp
     fbc:	6675620b 	ldrbtvs	r6, [r5], -fp, lsl #4
     fc0:	42940100 	addsmi	r0, r4, #0
     fc4:	04000000 	streq	r0, [r0]
     fc8:	0b000010 	bleq	1010 <TEXT_BASE-0x33f7eff0>
     fcc:	00646e65 	rsbeq	r6, r4, r5, ror #28
     fd0:	00429401 	subeq	r9, r2, r1, lsl #8
     fd4:	10dd0000 	sbcsne	r0, sp, r0
     fd8:	6e0b0000 	cdpvs	0, 0, cr0, cr11, cr0, {0}
     fdc:	01006d75 	tsteq	r0, r5, ror sp
     fe0:	0001db94 	muleq	r1, r4, fp
     fe4:	0010fb00 	andseq	pc, r0, r0, lsl #22
     fe8:	02a10c00 	adceq	r0, r1, #0
     fec:	94010000 	strls	r0, [r1]
     ff0:	00000095 	muleq	r0, r5, r0
     ff4:	0d009102 	stfeqd	f1, [r0, #-8]
     ff8:	000000e6 	andeq	r0, r0, r6, ror #1
     ffc:	00959401 	addseq	r9, r5, r1, lsl #8
    1000:	11530000 	cmpne	r3, r0
    1004:	590d0000 	stmdbpl	sp, {}
    1008:	01000003 	tsteq	r0, r3
    100c:	00009594 	muleq	r0, r4, r5
    1010:	00122a00 	andseq	r2, r2, r0, lsl #20
    1014:	024d0d00 	subeq	r0, sp, #0
    1018:	94010000 	strls	r0, [r1]
    101c:	00000095 	muleq	r0, r5, r0
    1020:	00001279 	andeq	r1, r0, r9, ror r2
    1024:	0100630e 	tsteq	r0, lr, lsl #6
    1028:	00004896 	muleq	r0, r6, r8
    102c:	00129800 	andseq	r9, r2, r0, lsl #16
    1030:	03810f00 	orreq	r0, r1, #0
    1034:	96010000 	strls	r0, [r1], -r0
    1038:	00000048 	andeq	r0, r0, r8, asr #32
    103c:	000012c7 	andeq	r1, r0, r7, asr #5
    1040:	706d7410 	rsbvc	r7, sp, r0, lsl r4
    1044:	e2960100 	adds	r0, r6, #0
    1048:	03000001 	movweq	r0, #1
    104c:	117f9491 	ldrbne	r9, [pc, #-65]	; 1013 <TEXT_BASE-0x33f7efed>
    1050:	0000031c 	andeq	r0, r0, ip, lsl r3
    1054:	00a29701 	adceq	r9, r2, r1, lsl #14
    1058:	5a010000 	bpl	41060 <TEXT_BASE-0x33f3efa0>
    105c:	0002df11 	andeq	sp, r2, r1, lsl pc
    1060:	02980100 	addseq	r0, r8, #0
    1064:	05000002 	streq	r0, [r0, #-2]
    1068:	f82d0003 	undefined instruction 0xf82d0003
    106c:	03161133 	tsteq	r6, #-1073741812	; 0xc000000c
    1070:	99010000 	stmdbls	r1, {}
    1074:	00000207 	andeq	r0, r0, r7, lsl #4
    1078:	2cd80305 	ldclcs	3, cr0, [r8], {5}
    107c:	690e33f8 	stmdbvs	lr, {r3, r4, r5, r6, r7, r8, r9, ip, sp}
    1080:	959a0100 	ldrls	r0, [sl, #256]	; 0x100
    1084:	35000000 	strcc	r0, [r0]
    1088:	12000013 	andne	r0, r0, #19
    108c:	33f80fe0 	mvnscc	r0, #896	; 0x380
    1090:	33f80ff0 	mvnscc	r0, #960	; 0x3c0
    1094:	00029f0f 	andeq	r9, r2, pc, lsl #30
    1098:	30ba0100 	adcscc	r0, sl, r0, lsl #2
    109c:	9b000000 	blls	10a4 <TEXT_BASE-0x33f7ef5c>
    10a0:	0e000013 	mcreq	0, 0, r0, cr0, cr3, {0}
    10a4:	006e5f5f 	rsbeq	r5, lr, pc, asr pc
    10a8:	01dbba01 	bicseq	fp, fp, r1, lsl #20
    10ac:	13da0000 	bicsne	r0, sl, #0
    10b0:	3d130000 	ldccc	0, cr0, [r3]
    10b4:	01000002 	tsteq	r0, r2
    10b8:	0001dbba 	undefined instruction 0x0001dbba
    10bc:	036f0f00 	cmneq	pc, #0
    10c0:	ba010000 	blt	410c8 <TEXT_BASE-0x33f3ef38>
    10c4:	00000030 	andeq	r0, r0, r0, lsr r0
    10c8:	000013f2 	strdeq	r1, [r0], -r2
    10cc:	08030000 	stmdaeq	r3, {}
    10d0:	00038b07 	andeq	r8, r3, r7, lsl #22
    10d4:	00481400 	subeq	r1, r8, r0, lsl #8
    10d8:	01f20000 	mvnseq	r0, r0
    10dc:	30150000 	andscc	r0, r5, r0
    10e0:	41000000 	tstmi	r0, r0
    10e4:	00481400 	subeq	r1, r8, r0, lsl #8
    10e8:	02020000 	andeq	r0, r2, #0
    10ec:	30150000 	andscc	r0, r5, r0
    10f0:	24000000 	strcs	r0, [r0]
    10f4:	01f20900 	mvnseq	r0, r0, lsl #18
    10f8:	f2090000 	vhadd.s8	d0, d9, d0
    10fc:	16000001 	strne	r0, [r0], -r1
    1100:	00030701 	andeq	r0, r3, r1, lsl #14
    1104:	01250100 	teqeq	r5, r0, lsl #2
    1108:	000002c5 	andeq	r0, r0, r5, asr #5
    110c:	33f810c8 	mvnscc	r1, #200	; 0xc8
    1110:	33f81228 	mvnscc	r1, #-2147483646	; 0x80000002
    1114:	00001405 	andeq	r1, r0, r5, lsl #8
    1118:	000002c5 	andeq	r0, r0, r5, asr #5
    111c:	0070630b 	rsbseq	r6, r0, fp, lsl #6
    1120:	00a22501 	adceq	r2, r2, r1, lsl #10
    1124:	14250000 	strtne	r0, [r5]
    1128:	cc0c0000 	stcgt	0, cr0, [ip], {0}
    112c:	01000002 	tsteq	r0, r2
    1130:	0002cc25 	andeq	ip, r2, r5, lsr #24
    1134:	0d510100 	ldfeqe	f0, [r1]
    1138:	000002a1 	andeq	r0, r0, r1, lsr #5
    113c:	00302501 	eorseq	r2, r0, r1, lsl #10
    1140:	14890000 	strne	r0, [r9]
    1144:	230f0000 	movwcs	r0, #61440	; 0xf000
    1148:	01000003 	tsteq	r0, r3
    114c:	0002c527 	andeq	ip, r2, r7, lsr #10
    1150:	0014eb00 	andseq	lr, r4, r0, lsl #22
    1154:	02740f00 	rsbseq	r0, r4, #0
    1158:	27010000 	strcs	r0, [r1, -r0]
    115c:	000002c5 	andeq	r0, r0, r5, asr #5
    1160:	00001516 	andeq	r1, r0, r6, lsl r5
    1164:	00004f17 	andeq	r4, r0, r7, lsl pc
    1168:	f8115000 	undefined instruction 0xf8115000
    116c:	f8115c33 	undefined instruction 0xf8115c33
    1170:	8e380133 	mrchi	1, 1, r0, cr8, cr3, {1}
    1174:	18000002 	stmdane	r0, {r1}
    1178:	00000060 	andeq	r0, r0, r0, rrx
    117c:	00001534 	andeq	r1, r0, r4, lsr r5
    1180:	004f1700 	subeq	r1, pc, r0, lsl #14
    1184:	11980000 	orrsne	r0, r8, r0
    1188:	11b433f8 	undefined instruction 0x11b433f8
    118c:	2e0133f8 	mcrcs	3, 0, r3, cr1, cr8, {7}
    1190:	000002ab 	andeq	r0, r0, fp, lsr #5
    1194:	00006018 	andeq	r6, r0, r8, lsl r0
    1198:	00155200 	andseq	r5, r5, r0, lsl #4
    119c:	4f190000 	svcmi	0x00190000
    11a0:	f4000000 	vst4.8	{d0-d3}, [r0], r0
    11a4:	0833f811 	ldmdaeq	r3!, {r0, r4, fp, ip, sp, lr, pc}
    11a8:	0133f812 	teqpeq	r3, r2, lsl r8
    11ac:	00601834 	rsbeq	r1, r0, r4, lsr r8
    11b0:	15860000 	strne	r0, [r6]
    11b4:	00000000 	andeq	r0, r0, r0
    11b8:	90070403 	andls	r0, r7, r3, lsl #8
    11bc:	04000003 	streq	r0, [r0], #-3
    11c0:	00004204 	andeq	r4, r0, r4, lsl #4
    11c4:	d1011600 	tstle	r1, r0, lsl #12
    11c8:	01000002 	tsteq	r0, r2
    11cc:	031c0149 	tsteq	ip, #1073741842	; 0x40000012
    11d0:	12280000 	eorne	r0, r8, #0
    11d4:	125033f8 	subsne	r3, r0, #-536870909	; 0xe0000003
    11d8:	15a433f8 	strne	r3, [r4, #1016]!	; 0x3f8
    11dc:	031c0000 	tsteq	ip, #0
    11e0:	630b0000 	movwvs	r0, #45056	; 0xb000
    11e4:	49010070 	stmdbmi	r1, {r4, r5, r6}
    11e8:	000000a2 	andeq	r0, r0, r2, lsr #1
    11ec:	000015c4 	andeq	r1, r0, r4, asr #11
    11f0:	0002cc0d 	andeq	ip, r2, sp, lsl #24
    11f4:	cc490100 	stfgte	f0, [r9], {0}
    11f8:	ef000002 	svc	0x00000002
    11fc:	0d000015 	stceq	0, cr0, [r0, #-84]	; 0xffffffac
    1200:	000002a1 	andeq	r0, r0, r1, lsr #5
    1204:	00304901 	eorseq	r4, r0, r1, lsl #18
    1208:	160d0000 	strne	r0, [sp], -r0
    120c:	03000000 	movweq	r0, #0
    1210:	03500504 	cmpeq	r0, #16777216	; 0x1000000
    1214:	01160000 	tsteq	r6, r0
    1218:	0000025a 	andeq	r0, r0, sl, asr r2
    121c:	db015801 	blle	57228 <TEXT_BASE-0x33f28dd8>
    1220:	50000001 	andpl	r0, r0, r1
    1224:	1033f812 	eorsne	pc, r3, r2, lsl r8
    1228:	2b33f814 	blcs	cff280 <TEXT_BASE-0x33280d80>
    122c:	de000016 	mcrle	0, 0, r0, cr0, cr6, {0}
    1230:	0b000003 	bleq	1244 <TEXT_BASE-0x33f7edbc>
    1234:	01007063 	tsteq	r0, r3, rrx
    1238:	0000a258 	andeq	sl, r0, r8, asr r2
    123c:	00165700 	andseq	r5, r6, r0, lsl #14
    1240:	02cc0d00 	sbceq	r0, ip, #0
    1244:	58010000 	stmdapl	r1, {}
    1248:	000002cc 	andeq	r0, r0, ip, asr #5
    124c:	000016d3 	ldrdeq	r1, [r0], -r3
    1250:	0002a10d 	andeq	sl, r2, sp, lsl #2
    1254:	30580100 	subscc	r0, r8, r0, lsl #2
    1258:	f2000000 	vhadd.s8	d0, d0, d0
    125c:	0f000016 	svceq	0x00000016
    1260:	00000323 	andeq	r0, r0, r3, lsr #6
    1264:	01db5a01 	bicseq	r5, fp, r1, lsl #20
    1268:	17600000 	strbne	r0, [r0, -r0]!
    126c:	740f0000 	strvc	r0, [pc], #0	; 1274 <TEXT_BASE-0x33f7ed8c>
    1270:	01000002 	tsteq	r0, r2
    1274:	0001db5a 	andeq	sp, r1, sl, asr fp
    1278:	0017a000 	andseq	sl, r7, r0
    127c:	004f1700 	subeq	r1, pc, r0, lsl #14
    1280:	13040000 	movwne	r0, #16384	; 0x4000
    1284:	130833f8 	movwne	r3, #33784	; 0x83f8
    1288:	6b0133f8 	blvs	4e270 <TEXT_BASE-0x33f31d90>
    128c:	000003a7 	andeq	r0, r0, r7, lsr #7
    1290:	00006018 	andeq	r6, r0, r8, lsl r0
    1294:	0017c800 	andseq	ip, r7, r0, lsl #16
    1298:	4f170000 	svcmi	0x00170000
    129c:	54000000 	strpl	r0, [r0]
    12a0:	7033f813 	eorsvc	pc, r3, r3, lsl r8
    12a4:	0133f813 	teqpeq	r3, r3, lsl r8
    12a8:	0003c461 	andeq	ip, r3, r1, ror #8
    12ac:	00601800 	rsbeq	r1, r0, r0, lsl #16
    12b0:	17dd0000 	ldrbne	r0, [sp, r0]
    12b4:	19000000 	stmdbne	r0, {}
    12b8:	0000004f 	andeq	r0, r0, pc, asr #32
    12bc:	33f813dc 	mvnscc	r1, #1879048195	; 0x70000003
    12c0:	33f813f0 	mvnscc	r1, #-1073741821	; 0xc0000003
    12c4:	60186701 	andsvs	r6, r8, r1, lsl #14
    12c8:	11000000 	tstne	r0, r0
    12cc:	00000018 	andeq	r0, r0, r8, lsl r0
    12d0:	b5011600 	strlt	r1, [r1, #-1536]	; 0x600
    12d4:	01000002 	tsteq	r0, r2
    12d8:	0428017c 	strteq	r0, [r8], #-380	; 0x17c
    12dc:	14100000 	ldrne	r0, [r0]
    12e0:	144433f8 	strbne	r3, [r4], #-1016	; 0x3f8
    12e4:	182f33f8 	stmdane	pc!, {r3, r4, r5, r6, r7, r8, r9, ip, sp}
    12e8:	04280000 	strteq	r0, [r8]
    12ec:	630b0000 	movwvs	r0, #45056	; 0xb000
    12f0:	7c010070 	stcvc	0, cr0, [r1], {112}	; 0x70
    12f4:	000000a2 	andeq	r0, r0, r2, lsr #1
    12f8:	0000184f 	andeq	r1, r0, pc, asr #16
    12fc:	0002cc0d 	andeq	ip, r2, sp, lsl #24
    1300:	cc7c0100 	ldfgte	f0, [ip]
    1304:	7a000002 	bvc	1314 <TEXT_BASE-0x33f7ecec>
    1308:	0d000018 	stceq	0, cr0, [r0, #-96]	; 0xffffffa0
    130c:	000002a1 	andeq	r0, r0, r1, lsr #5
    1310:	00307c01 	eorseq	r7, r0, r1, lsl #24
    1314:	18980000 	ldmne	r8, {}
    1318:	03000000 	movweq	r0, #0
    131c:	034b0508 	movteq	r0, #46344	; 0xb508
    1320:	011a0000 	tsteq	sl, r0
    1324:	0000027a 	andeq	r0, r0, sl, ror r2
    1328:	01010301 	tsteq	r1, r1, lsl #6
    132c:	00000095 	muleq	r0, r5, r0
    1330:	33f81444 	mvnscc	r1, #1140850688	; 0x44000000
    1334:	33f81ad4 	mvnscc	r1, #868352	; 0xd4000
    1338:	000018b6 	undefined instruction 0x000018b6
    133c:	000005e3 	andeq	r0, r0, r3, ror #11
    1340:	6675621b 	undefined instruction 0x6675621b
    1344:	01030100 	tsteq	r3, r0, lsl #2
    1348:	00000042 	andeq	r0, r0, r2, asr #32
    134c:	000018e3 	andeq	r1, r0, r3, ror #17
    1350:	0000e61c 	andeq	lr, r0, ip, lsl r6
    1354:	01030100 	tsteq	r3, r0, lsl #2
    1358:	00000025 	andeq	r0, r0, r5, lsr #32
    135c:	0000192f 	andeq	r1, r0, pc, lsr #18
    1360:	746d661b 	strbtvc	r6, [sp], #-1563	; 0x61b
    1364:	01030100 	tsteq	r3, r0, lsl #2
    1368:	000000a2 	andeq	r0, r0, r2, lsr #1
    136c:	0000194e 	andeq	r1, r0, lr, asr #18
    1370:	0001011c 	andeq	r0, r1, ip, lsl r1
    1374:	01030100 	tsteq	r3, r0, lsl #2
    1378:	00000037 	andeq	r0, r0, r7, lsr r0
    137c:	00001a45 	andeq	r1, r0, r5, asr #20
    1380:	6e656c1d 	mcrvs	12, 3, r6, cr5, cr13, {0}
    1384:	01050100 	tsteq	r5, r0, lsl #2
    1388:	00000095 	muleq	r0, r5, r0
    138c:	00001b74 	andeq	r1, r0, r4, ror fp
    1390:	6d756e1d 	ldclvs	14, cr6, [r5, #-116]!	; 0xffffff8c
    1394:	01060100 	tsteq	r6, r0, lsl #2
    1398:	000001db 	ldrdeq	r0, [r0], -fp
    139c:	00001b87 	andeq	r1, r0, r7, lsl #23
    13a0:	0100691d 	tsteq	r0, sp, lsl r9
    13a4:	00950107 	addseq	r0, r5, r7, lsl #2
    13a8:	1bdb0000 	blne	ff6c13b0 <MEM_CTL_BASE+0xb76c13b0>
    13ac:	a11e0000 	tstge	lr, r0
    13b0:	01000002 	tsteq	r0, r2
    13b4:	00950107 	addseq	r0, r5, r7, lsl #2
    13b8:	1bfa0000 	blne	ffe813c0 <MEM_CTL_BASE+0xb7e813c0>
    13bc:	731d0000 	tstvc	sp, #0
    13c0:	01007274 	tsteq	r0, r4, ror r2
    13c4:	00420108 	subeq	r0, r2, r8, lsl #2
    13c8:	1c6b0000 	stclne	0, cr0, [fp]
    13cc:	651d0000 	ldrvs	r0, [sp]
    13d0:	0100646e 	tsteq	r0, lr, ror #8
    13d4:	00420108 	subeq	r0, r2, r8, lsl #2
    13d8:	1d440000 	stclne	0, cr0, [r4]
    13dc:	631d0000 	tstvs	sp, #0
    13e0:	01080100 	tsteq	r8, r0, lsl #2
    13e4:	00000048 	andeq	r0, r0, r8, asr #32
    13e8:	00001d7a 	andeq	r1, r0, sl, ror sp
    13ec:	0100731d 	tsteq	r0, sp, lsl r3
    13f0:	00a20109 	adceq	r0, r2, r9, lsl #2
    13f4:	1d990000 	ldcne	0, cr0, [r9]
    13f8:	ec1e0000 	ldc	0, cr0, [lr], {0}
    13fc:	01000002 	tsteq	r0, r2
    1400:	0095010b 	addseq	r0, r5, fp, lsl #2
    1404:	1db80000 	ldcne	0, cr0, [r8]
    1408:	631e0000 	tstvs	lr, #0
    140c:	01000003 	tsteq	r0, r3
    1410:	0095010d 	addseq	r0, r5, sp, lsl #2
    1414:	1e390000 	cdpne	0, 3, cr0, cr9, cr0, {0}
    1418:	591e0000 	ldmdbpl	lr, {}
    141c:	01000003 	tsteq	r0, r3
    1420:	0095010e 	addseq	r0, r5, lr, lsl #2
    1424:	1efd0000 	cdpne	0, 15, cr0, cr13, cr0, {0}
    1428:	f21e0000 	vhadd.s16	d0, d14, d0
    142c:	01000002 	tsteq	r0, r2
    1430:	00950110 	addseq	r0, r5, r0, lsl r1
    1434:	1f7a0000 	svcne	0x007a0000
    1438:	2a1f0000 	bcs	7c1440 <TEXT_BASE-0x337bebc0>
    143c:	01000003 	tsteq	r0, r3
    1440:	7120012f 	teqvc	r0, pc, lsr #2
    1444:	8c000000 	stchi	0, cr0, [r0], {0}
    1448:	ac33f815 	ldcge	8, cr15, [r3], #-84	; 0xffffffac
    144c:	0133f815 	teqpeq	r3, r5, lsl r8
    1450:	057c013c 	ldrbeq	r0, [ip, #-316]!	; 0x13c
    1454:	82210000 	eorhi	r0, r1, #0
    1458:	12000000 	andne	r0, r0, #0
    145c:	33f8158c 	mvnscc	r1, #587202560	; 0x23000000
    1460:	33f815ac 	mvnscc	r1, #721420288	; 0x2b000000
    1464:	00008b22 	andeq	r8, r0, r2, lsr #22
    1468:	00202400 	eoreq	r2, r0, r0, lsl #8
    146c:	20000000 	andcs	r0, r0, r0
    1470:	00000071 	andeq	r0, r0, r1, ror r0
    1474:	33f817b8 	mvnscc	r1, #48234496	; 0x2e00000
    1478:	33f817dc 	mvnscc	r1, #57671680	; 0x3700000
    147c:	a9014c01 	stmdbge	r1, {r0, sl, fp, lr}
    1480:	21000005 	tstcs	r0, r5
    1484:	00000082 	andeq	r0, r0, r2, lsl #1
    1488:	f817b812 	undefined instruction 0xf817b812
    148c:	f817dc33 	undefined instruction 0xf817dc33
    1490:	008b2233 	addeq	r2, fp, r3, lsr r2
    1494:	20430000 	subcs	r0, r3, r0
    1498:	00000000 	andeq	r0, r0, r0
    149c:	f819c023 	undefined instruction 0xf819c023
    14a0:	f819d433 	undefined instruction 0xf819d433
    14a4:	0005c633 	andeq	ip, r5, r3, lsr r6
    14a8:	70691d00 	rsbvc	r1, r9, r0, lsl #26
    14ac:	01a80100 	undefined instruction 0x01a80100
    14b0:	000005e3 	andeq	r0, r0, r3, ror #11
    14b4:	00002056 	andeq	r2, r0, r6, asr r0
    14b8:	1ab41200 	bne	fed05cc0 <MEM_CTL_BASE+0xb6d05cc0>
    14bc:	1ad433f8 	bne	ff50e4a4 <MEM_CTL_BASE+0xb750e4a4>
    14c0:	b02433f8 	strdlt	r3, [r4], -r8
    14c4:	01000002 	tsteq	r0, r2
    14c8:	00950117 	addseq	r0, r5, r7, lsl r1
    14cc:	03050000 	movweq	r0, #20480	; 0x5000
    14d0:	33f82bd4 	mvnscc	r2, #217088	; 0x35000
    14d4:	04040000 	streq	r0, [r4]
    14d8:	00000095 	muleq	r0, r5, r0
    14dc:	0294011a 	addseq	r0, r4, #-2147483642	; 0x80000006
    14e0:	00010000 	andeq	r0, r1, r0
    14e4:	00950102 	addseq	r0, r5, r2, lsl #2
    14e8:	1ad40000 	bne	ff5014f0 <MEM_CTL_BASE+0xb75014f0>
    14ec:	1aec33f8 	bne	ffb0e4d4 <MEM_CTL_BASE+0xb7b0e4d4>
    14f0:	207633f8 	ldrshtcs	r3, [r6], #-56	; 0xffffffc8
    14f4:	06560000 	ldrbeq	r0, [r6], -r0
    14f8:	621b0000 	andsvs	r0, fp, #0
    14fc:	01006675 	tsteq	r0, r5, ror r6
    1500:	00420200 	subeq	r0, r2, r0, lsl #4
    1504:	20960000 	addscs	r0, r6, r0
    1508:	e61c0000 	ldr	r0, [ip], -r0
    150c:	01000000 	tsteq	r0, r0
    1510:	00250200 	eoreq	r0, r5, r0, lsl #4
    1514:	20a90000 	adccs	r0, r9, r0
    1518:	661b0000 	ldrvs	r0, [fp], -r0
    151c:	0100746d 	tsteq	r0, sp, ror #8
    1520:	00a20200 	adceq	r0, r2, r0, lsl #4
    1524:	20c70000 	sbccs	r0, r7, r0
    1528:	011c0000 	tsteq	ip, r0
    152c:	01000001 	tsteq	r0, r1
    1530:	00370200 	eorseq	r0, r7, r0, lsl #4
    1534:	20da0000 	sbcscs	r0, sl, r0
    1538:	691d0000 	ldmdbvs	sp, {}
    153c:	02020100 	andeq	r0, r2, #0
    1540:	00000095 	muleq	r0, r5, r0
    1544:	000020ed 	andeq	r2, r0, sp, ror #1
    1548:	7b011a00 	blvc	47d50 <TEXT_BASE-0x33f382b0>
    154c:	01000002 	tsteq	r0, r2
    1550:	95010216 	strls	r0, [r1, #-534]	; 0x216
    1554:	ec000000 	stc	0, cr0, [r0], {0}
    1558:	0c33f81a 	ldceq	8, cr15, [r3], #-104	; 0xffffff98
    155c:	0033f81b 	eorseq	pc, r3, fp, lsl r8
    1560:	bf000021 	svclt	0x00000021
    1564:	1b000006 	blne	1584 <TEXT_BASE-0x33f7ea7c>
    1568:	00667562 	rsbeq	r7, r6, r2, ror #10
    156c:	42021601 	andmi	r1, r2, #1048576	; 0x100000
    1570:	2c000000 	stccs	0, cr0, [r0], {0}
    1574:	1c000021 	stcne	0, cr0, [r0], {33}	; 0x21
    1578:	000000e6 	andeq	r0, r0, r6, ror #1
    157c:	25021601 	strcs	r1, [r2, #-1537]	; 0x601
    1580:	3f000000 	svccc	0x00000000
    1584:	25000021 	strcs	r0, [r0, #-33]	; 0x21
    1588:	00746d66 	rsbseq	r6, r4, r6, ror #26
    158c:	a2021601 	andge	r1, r2, #1048576	; 0x100000
    1590:	02000000 	andeq	r0, r0, #0
    1594:	24267891 	strtcs	r7, [r6], #-2193	; 0x891
    1598:	00000101 	andeq	r0, r0, r1, lsl #2
    159c:	37021801 	strcc	r1, [r2, -r1, lsl #16]
    15a0:	03000000 	movweq	r0, #0
    15a4:	279f6491 	undefined instruction 0x279f6491
    15a8:	19010069 	stmdbne	r1, {r0, r3, r5, r6}
    15ac:	00009502 	andeq	r9, r0, r2, lsl #10
    15b0:	011a0000 	tsteq	sl, r0
    15b4:	00000295 	muleq	r0, r5, r2
    15b8:	01022f01 	tsteq	r2, r1, lsl #30
    15bc:	00000095 	muleq	r0, r5, r0
    15c0:	33f81b0c 	mvnscc	r1, #12288	; 0x3000
    15c4:	33f81b38 	mvnscc	r1, #57344	; 0xe000
    15c8:	00002152 	andeq	r2, r0, r2, asr r1
    15cc:	0000072c 	andeq	r0, r0, ip, lsr #14
    15d0:	6675621b 	undefined instruction 0x6675621b
    15d4:	022f0100 	eoreq	r0, pc, #0
    15d8:	00000042 	andeq	r0, r0, r2, asr #32
    15dc:	0000217e 	andeq	r2, r0, lr, ror r1
    15e0:	0000e61c 	andeq	lr, r0, ip, lsl r6
    15e4:	022f0100 	eoreq	r0, pc, #0
    15e8:	00000025 	andeq	r0, r0, r5, lsr #32
    15ec:	00002191 	muleq	r0, r1, r1
    15f0:	746d6625 	strbtvc	r6, [sp], #-1573	; 0x625
    15f4:	022f0100 	eoreq	r0, pc, #0
    15f8:	000000a2 	andeq	r0, r0, r2, lsr #1
    15fc:	26789102 	ldrbtcs	r9, [r8], -r2, lsl #2
    1600:	00010124 	andeq	r0, r1, r4, lsr #2
    1604:	02310100 	eorseq	r0, r1, #0
    1608:	00000037 	andeq	r0, r0, r7, lsr r0
    160c:	9f649103 	svcls	0x00649103
    1610:	0100691d 	tsteq	r0, sp, lsl r9
    1614:	00950232 	addseq	r0, r5, r2, lsr r2
    1618:	21af0000 	undefined instruction 0x21af0000
    161c:	28000000 	stmdacs	r0, {}
    1620:	00037501 	andeq	r7, r3, r1, lsl #10
    1624:	02480100 	subeq	r0, r8, #0
    1628:	00009501 	andeq	r9, r0, r1, lsl #10
    162c:	f81b3800 	undefined instruction 0xf81b3800
    1630:	f81b4c33 	undefined instruction 0xf81b4c33
    1634:	007d0233 	rsbseq	r0, sp, r3, lsr r2
    1638:	00000778 	andeq	r0, r0, r8, ror r7
    163c:	66756225 	ldrbtvs	r6, [r5], -r5, lsr #4
    1640:	02480100 	subeq	r0, r8, #0
    1644:	00000042 	andeq	r0, r0, r2, asr #32
    1648:	661b5001 	ldrvs	r5, [fp], -r1
    164c:	0100746d 	tsteq	r0, sp, ror #8
    1650:	00a20248 	adceq	r0, r2, r8, asr #4
    1654:	21c20000 	biccs	r0, r2, r0
    1658:	011c0000 	tsteq	ip, r0
    165c:	01000001 	tsteq	r0, r1
    1660:	00370248 	eorseq	r0, r7, r8, asr #4
    1664:	21e00000 	mvncs	r0, r0
    1668:	1a000000 	bne	1670 <TEXT_BASE-0x33f7e990>
    166c:	00037601 	andeq	r7, r3, r1, lsl #12
    1670:	02590100 	subseq	r0, r9, #0
    1674:	00009501 	andeq	r9, r0, r1, lsl #10
    1678:	f81b4c00 	undefined instruction 0xf81b4c00
    167c:	f81b6c33 	undefined instruction 0xf81b6c33
    1680:	0021fe33 	eoreq	pc, r1, r3, lsr lr
    1684:	0007d100 	andeq	sp, r7, r0, lsl #2
    1688:	75621b00 	strbvc	r1, [r2, #-2816]!	; 0xb00
    168c:	59010066 	stmdbpl	r1, {r1, r2, r5, r6}
    1690:	00004202 	andeq	r4, r0, r2, lsl #4
    1694:	00222a00 	eoreq	r2, r2, r0, lsl #20
    1698:	6d662500 	cfstr64vs	mvdx2, [r6]
    169c:	59010074 	stmdbpl	r1, {r2, r4, r5, r6}
    16a0:	0000a202 	andeq	sl, r0, r2, lsl #4
    16a4:	74910200 	ldrvc	r0, [r1], #512	; 0x200
    16a8:	01012426 	tsteq	r1, r6, lsr #8
    16ac:	5b010000 	blpl	416b4 <TEXT_BASE-0x33f3e94c>
    16b0:	00003702 	andeq	r3, r0, r2, lsl #14
    16b4:	58910300 	ldmpl	r1, {r8, r9}
    16b8:	0069279f 	mlseq	r9, pc, r7, r2
    16bc:	95025c01 	strls	r5, [r2, #-3073]	; 0xc01
    16c0:	00000000 	andeq	r0, r0, r0
    16c4:	02c4011a 	sbceq	r0, r4, #-2147483642	; 0x80000006
    16c8:	74010000 	strvc	r0, [r1]
    16cc:	00950102 	addseq	r0, r5, r2, lsl #2
    16d0:	1b6c0000 	blne	1b016d8 <TEXT_BASE-0x3247e928>
    16d4:	227833f8 	rsbscs	r3, r8, #-536870909	; 0xe0000003
    16d8:	223d33f8 	eorscs	r3, sp, #-536870909	; 0xe0000003
    16dc:	09f80000 	ldmibeq	r8!, {}^
    16e0:	621b0000 	andsvs	r0, fp, #0
    16e4:	01006675 	tsteq	r0, r5, ror r6
    16e8:	00a20274 	adceq	r0, r2, r4, ror r2
    16ec:	22690000 	rsbcs	r0, r9, #0
    16f0:	661b0000 	ldrvs	r0, [fp], -r0
    16f4:	0100746d 	tsteq	r0, sp, ror #8
    16f8:	00a20274 	adceq	r0, r2, r4, ror r2
    16fc:	22870000 	addcs	r0, r7, #0
    1700:	011c0000 	tsteq	ip, r0
    1704:	01000001 	tsteq	r0, r1
    1708:	00370274 	eorseq	r0, r7, r4, ror r2
    170c:	238b0000 	orrcs	r0, fp, #0
    1710:	731d0000 	tstvc	sp, #0
    1714:	01007274 	tsteq	r0, r4, ror r2
    1718:	00a20276 	adceq	r0, r2, r6, ror r2
    171c:	24b10000 	ldrtcs	r0, [r1]
    1720:	86240000 	strthi	r0, [r4], -r0
    1724:	01000003 	tsteq	r0, r3
    1728:	00420277 	subeq	r0, r2, r7, ror r2
    172c:	91020000 	tstls	r2, r0
    1730:	02841e4c 	addeq	r1, r4, #1216	; 0x4c0
    1734:	78010000 	stmdavc	r1, {}
    1738:	00004802 	andeq	r4, r0, r2, lsl #16
    173c:	00261900 	eoreq	r1, r6, r0, lsl #18
    1740:	756e1d00 	strbvc	r1, [lr, #-3328]!	; 0xd00
    1744:	7901006d 	stmdbvc	r1, {r0, r2, r3, r5, r6}
    1748:	00009502 	andeq	r9, r0, r2, lsl #10
    174c:	00264d00 	eoreq	r4, r6, r0, lsl #26
    1750:	02f21e00 	rscseq	r1, r2, #0
    1754:	7a010000 	bvc	4175c <TEXT_BASE-0x33f3e8a4>
    1758:	00009502 	andeq	r9, r0, r2, lsl #10
    175c:	0026ae00 	eoreq	sl, r6, r0, lsl #28
    1760:	02a11e00 	adceq	r1, r1, #0
    1764:	7b010000 	blvc	4176c <TEXT_BASE-0x33f3e894>
    1768:	00009502 	andeq	r9, r0, r2, lsl #10
    176c:	00279a00 	eoreq	r9, r7, r0, lsl #20
    1770:	03631e00 	cmneq	r3, #0
    1774:	7c010000 	stcvc	0, cr0, [r1], {0}
    1778:	00009502 	andeq	r9, r0, r2, lsl #10
    177c:	00285a00 	eoreq	r5, r8, r0, lsl #20
    1780:	037e1e00 	cmneq	lr, #0
    1784:	7d010000 	stcvc	0, cr0, [r1]
    1788:	00009502 	andeq	r9, r0, r2, lsl #10
    178c:	00292300 	eoreq	r2, r9, r0, lsl #6
    1790:	00712000 	rsbseq	r2, r1, r0
    1794:	1c4c0000 	marne	acc0, r0, ip
    1798:	1c6c33f8 	stclne	3, cr3, [ip], #-992	; 0xfffffc20
    179c:	a40133f8 	strge	r3, [r1], #-1016	; 0x3f8
    17a0:	0008cb02 	andeq	ip, r8, r2, lsl #22
    17a4:	00822100 	addeq	r2, r2, r0, lsl #2
    17a8:	4c120000 	ldcmi	0, cr0, [r2], {0}
    17ac:	6c33f81c 	ldcvs	8, cr15, [r3], #-112	; 0xffffff90
    17b0:	2233f81c 	eorscs	pc, r3, #1835008	; 0x1c0000
    17b4:	0000008b 	andeq	r0, r0, fp, lsl #1
    17b8:	0000297f 	andeq	r2, r0, pc, ror r9
    17bc:	2c230000 	stccs	0, cr0, [r3]
    17c0:	3c33f820 	ldccc	8, cr15, [r3], #-128	; 0xffffff80
    17c4:	e733f820 	ldr	pc, [r3, -r0, lsr #16]!
    17c8:	1d000008 	stcne	0, cr0, [r0, #-32]	; 0xffffffe0
    17cc:	35010069 	strcc	r0, [r1, #-105]	; 0x69
    17d0:	0005e303 	andeq	lr, r5, r3, lsl #6
    17d4:	00299200 	eoreq	r9, r9, r0, lsl #4
    17d8:	54230000 	strtpl	r0, [r3]
    17dc:	8433f820 	ldrthi	pc, [r3], #-2080	; 0x820
    17e0:	0333f820 	teqpeq	r3, #2097152	; 0x200000
    17e4:	1d000009 	stcne	0, cr0, [r0, #-36]	; 0xffffffdc
    17e8:	be010073 	mcrlt	0, 0, r0, cr1, cr3, {3}
    17ec:	00004202 	andeq	r4, r0, r2, lsl #4
    17f0:	0029b100 	eoreq	fp, r9, r0, lsl #2
    17f4:	68290000 	stmdavs	r9!, {}
    17f8:	1b000001 	blne	1804 <TEXT_BASE-0x33f7e7fc>
    17fc:	1d000009 	stcne	0, cr0, [r0, #-36]	; 0xffffffdc
    1800:	c9010073 	stmdbgt	r1, {r0, r1, r4, r5, r6}
    1804:	00004202 	andeq	r4, r0, r2, lsl #4
    1808:	0029db00 	eoreq	sp, r9, r0, lsl #22
    180c:	a0230000 	eorge	r0, r3, r0
    1810:	b033f820 	eorslt	pc, r3, r0, lsr #16
    1814:	3733f820 	ldrcc	pc, [r3, -r0, lsr #16]!
    1818:	1d000009 	stcne	0, cr0, [r0, #-36]	; 0xffffffdc
    181c:	db010069 	blle	419c8 <TEXT_BASE-0x33f3e638>
    1820:	0005e302 	andeq	lr, r5, r2, lsl #6
    1824:	002a1000 	eoreq	r1, sl, r0
    1828:	6c230000 	stcvs	0, cr0, [r3]
    182c:	8033f821 	eorshi	pc, r3, r1, lsr #16
    1830:	5333f821 	teqppl	r3, #2162688	; 0x210000
    1834:	1d000009 	stcne	0, cr0, [r0, #-36]	; 0xffffffdc
    1838:	38010069 	stmdacc	r1, {r0, r3, r5, r6}
    183c:	0009f803 	andeq	pc, r9, r3, lsl #16
    1840:	002a3000 	eoreq	r3, sl, r0
    1844:	8c230000 	stchi	0, cr0, [r3]
    1848:	a033f821 	eorsge	pc, r3, r1, lsr #16
    184c:	6f33f821 	svcvs	0x0033f821
    1850:	1d000009 	stcne	0, cr0, [r0, #-36]	; 0xffffffdc
    1854:	2501006c 	strcs	r0, [r1, #-108]	; 0x6c
    1858:	0009fe03 	andeq	pc, r9, r3, lsl #28
    185c:	002a4f00 	eoreq	r4, sl, r0, lsl #30
    1860:	ac230000 	stcge	0, cr0, [r3]
    1864:	c033f821 	eorsgt	pc, r3, r1, lsr #16
    1868:	8b33f821 	blhi	cff8f4 <TEXT_BASE-0x3328070c>
    186c:	1d000009 	stcne	0, cr0, [r0, #-36]	; 0xffffffdc
    1870:	0a010073 	beq	41a44 <TEXT_BASE-0x33f3e5bc>
    1874:	000a0403 	andeq	r0, sl, r3, lsl #8
    1878:	002a6e00 	eoreq	r6, sl, r0, lsl #28
    187c:	cc230000 	stcgt	0, cr0, [r3]
    1880:	e033f821 	eors	pc, r3, r1, lsr #16
    1884:	a733f821 	ldrge	pc, [r3, -r1, lsr #16]!
    1888:	1d000009 	stcne	0, cr0, [r0, #-36]	; 0xffffffdc
    188c:	13010073 	movwne	r0, #4211	; 0x1073
    1890:	000a1103 	andeq	r1, sl, r3, lsl #2
    1894:	002a8d00 	eoreq	r8, sl, r0, lsl #26
    1898:	08230000 	stmdaeq	r3!, {}
    189c:	1c33f822 	ldcne	8, cr15, [r3], #-136	; 0xffffff78
    18a0:	c333f822 	teqpgt	r3, #2228224	; 0x220000
    18a4:	1d000009 	stcne	0, cr0, [r0, #-36]	; 0xffffffdc
    18a8:	16010073 	undefined instruction 0x16010073
    18ac:	000a1e03 	andeq	r1, sl, r3, lsl #28
    18b0:	002aac00 	eoreq	sl, sl, r0, lsl #24
    18b4:	1c230000 	stcne	0, cr0, [r3]
    18b8:	3033f822 	eorscc	pc, r3, r2, lsr #16
    18bc:	df33f822 	svcle	0x0033f822
    18c0:	1d000009 	stcne	0, cr0, [r0, #-36]	; 0xffffffdc
    18c4:	0d010073 	stceq	0, cr0, [r1, #-460]	; 0xfffffe34
    18c8:	000a2b03 	andeq	r2, sl, r3, lsl #22
    18cc:	002acb00 	eoreq	ip, sl, r0, lsl #22
    18d0:	30120000 	andscc	r0, r2, r0
    18d4:	4433f822 	ldrtmi	pc, [r3], #-2082	; 0x822
    18d8:	1d33f822 	ldcne	8, cr15, [r3, #-136]!	; 0xffffff78
    18dc:	2801006c 	stmdacs	r1, {r2, r3, r5, r6}
    18e0:	000a3103 	andeq	r3, sl, r3, lsl #2
    18e4:	002aea00 	eoreq	lr, sl, r0, lsl #20
    18e8:	04000000 	streq	r0, [r0]
    18ec:	00003004 	andeq	r3, r0, r4
    18f0:	28040400 	stmdacs	r4, {sl}
    18f4:	04000004 	streq	r0, [r0], #-4
    18f8:	000a0a04 	andeq	r0, sl, r4, lsl #20
    18fc:	06010300 	streq	r0, [r1], -r0, lsl #6
    1900:	0000005f 	andeq	r0, r0, pc, asr r0
    1904:	0a170404 	beq	5c291c <TEXT_BASE-0x339bd6e4>
    1908:	02030000 	andeq	r0, r3, #0
    190c:	00028a05 	andeq	r8, r2, r5, lsl #20
    1910:	24040400 	strcs	r0, [r4], #-1024	; 0x400
    1914:	0300000a 	movweq	r0, #10
    1918:	03380702 	teqeq	r8, #524288	; 0x80000
    191c:	04040000 	streq	r0, [r4]
    1920:	0000006a 	andeq	r0, r0, sl, rrx
    1924:	01db0404 	bicseq	r0, fp, r4, lsl #8
    1928:	011a0000 	tsteq	sl, r0
    192c:	000002c5 	andeq	r0, r0, r5, asr #5
    1930:	01034e01 	tsteq	r3, r1, lsl #28
    1934:	00000095 	muleq	r0, r5, r0
    1938:	33f82278 	mvnscc	r2, #-2147483641	; 0x80000007
    193c:	33f82298 	mvnscc	r2, #-2147483639	; 0x80000009
    1940:	00002b09 	andeq	r2, r0, r9, lsl #22
    1944:	00000a90 	muleq	r0, r0, sl
    1948:	6675621b 	undefined instruction 0x6675621b
    194c:	034e0100 	movteq	r0, #57600	; 0xe100
    1950:	000000a2 	andeq	r0, r0, r2, lsr #1
    1954:	00002b35 	andeq	r2, r0, r5, lsr fp
    1958:	746d6625 	strbtvc	r6, [sp], #-1573	; 0x625
    195c:	034e0100 	movteq	r0, #57600	; 0xe100
    1960:	000000a2 	andeq	r0, r0, r2, lsr #1
    1964:	26749102 	ldrbtcs	r9, [r4], -r2, lsl #2
    1968:	00010124 	andeq	r0, r1, r4, lsr #2
    196c:	03500100 	cmpeq	r0, #0
    1970:	00000037 	andeq	r0, r0, r7, lsr r0
    1974:	9f589103 	svcls	0x00589103
    1978:	01006927 	tsteq	r0, r7, lsr #18
    197c:	00950351 	addseq	r0, r5, r1, asr r3
    1980:	14000000 	strne	r0, [r0]
    1984:	0000006a 	andeq	r0, r0, sl, rrx
    1988:	00000a9b 	muleq	r0, fp, sl
    198c:	4b2b002a 	blmi	ac1a3c <TEXT_BASE-0x334be5c4>
    1990:	02000002 	andeq	r0, r0, #2
    1994:	000a900f 	andeq	r9, sl, pc
    1998:	2b010100 	blcs	41da0 <TEXT_BASE-0x33f3e260>
    199c:	0000024b 	andeq	r0, r0, fp, asr #4
    19a0:	0a900f02 	beq	fe4055b0 <MEM_CTL_BASE+0xb64055b0>
    19a4:	01010000 	tsteq	r1, r0
    19a8:	00006200 	andeq	r6, r0, r0, lsl #4
    19ac:	fe000200 	cdp2	2, 0, cr0, cr0, cr0, {0}
    19b0:	04000007 	streq	r0, [r0], #-7
    19b4:	000a4a01 	andeq	r4, sl, r1, lsl #20
    19b8:	f822a000 	undefined instruction 0xf822a000
    19bc:	f823cc33 	undefined instruction 0xf823cc33
    19c0:	76696433 	undefined instruction 0x76696433
    19c4:	532e3436 	teqpl	lr, #905969664	; 0x36000000
    19c8:	6f772f00 	svcvs	0x00772f00
    19cc:	652f6b72 	strvs	r6, [pc, #-2930]!	; e62 <TEXT_BASE-0x33f7f19e>
    19d0:	70696c63 	rsbvc	r6, r9, r3, ror #24
    19d4:	705f6573 	subsvc	r6, pc, r3, ror r5
    19d8:	656a6f72 	strbvs	r6, [sl, #-3954]!	; 0xf72
    19dc:	2f737463 	svccs	0x00737463
    19e0:	6566756c 	strbvs	r7, [r6, #-1388]!	; 0x56c
    19e4:	746f2f69 	strbtvc	r2, [pc], #3945	; 19ec <TEXT_BASE-0x33f7e614>
    19e8:	2f726568 	svccs	0x00726568
    19ec:	732e3731 	teqvc	lr, #12845056	; 0xc40000
    19f0:	6f696474 	svcvs	0x00696474
    19f4:	6265642f 	rsbvs	r6, r5, #788529152	; 0x2f000000
    19f8:	6c2f6775 	stcvs	7, cr6, [pc], #-468	; 0xfffffe2c
    19fc:	47006269 	strmi	r6, [r0, -r9, ror #4]
    1a00:	4120554e 	teqmi	r0, lr, asr #10
    1a04:	2e322053 	mrccs	0, 1, r2, cr2, cr3, {2}
    1a08:	312e3032 	teqcc	lr, r2, lsr r0
    1a0c:	5f800100 	svcpl	0x00800100
    1a10:	02000000 	andeq	r0, r0, #0
    1a14:	00081200 	andeq	r1, r8, r0, lsl #4
    1a18:	46010400 	strmi	r0, [r1], -r0, lsl #8
    1a1c:	01000000 	tsteq	r0, r0
    1a20:	000003a2 	andeq	r0, r0, r2, lsr #7
    1a24:	0000010e 	andeq	r0, r0, lr, lsl #2
    1a28:	33f823d0 	mvnscc	r2, #1073741827	; 0x40000003
    1a2c:	33f823d0 	mvnscc	r2, #1073741827	; 0x40000003
    1a30:	00000ad1 	ldrdeq	r0, [r0], -r1
    1a34:	00003c02 	andeq	r3, r0, r2, lsl #24
    1a38:	00003500 	andeq	r3, r0, r0, lsl #10
    1a3c:	00350300 	eorseq	r0, r5, r0, lsl #6
    1a40:	00ff0000 	rscseq	r0, pc, r0
    1a44:	95070404 	strls	r0, [r7, #-1028]	; 0x404
    1a48:	04000003 	streq	r0, [r0], #-3
    1a4c:	005d0801 	subseq	r0, sp, r1, lsl #16
    1a50:	4b050000 	blmi	141a58 <TEXT_BASE-0x33e3e5a8>
    1a54:	01000002 	tsteq	r0, r2
    1a58:	0000250f 	andeq	r2, r0, pc, lsl #10
    1a5c:	06010100 	streq	r0, [r1], -r0, lsl #2
    1a60:	0000024b 	andeq	r0, r0, fp, asr #4
    1a64:	00250902 	eoreq	r0, r5, r2, lsl #18
    1a68:	05010000 	streq	r0, [r1]
    1a6c:	f82bd803 	undefined instruction 0xf82bd803
    1a70:	Address 0x00001a70 is out of bounds.


Disassembly of section .debug_line:

00000000 <.debug_line>:
   0:	0000006b 	andeq	r0, r0, fp, rrx
   4:	001d0002 	andseq	r0, sp, r2
   8:	01020000 	tsteq	r2, r0
   c:	000d0efb 	strdeq	r0, [sp], -fp
  10:	01010101 	tsteq	r1, r1, lsl #2
  14:	01000000 	tsteq	r0, r0
  18:	00010000 	andeq	r0, r1, r0
  1c:	6e69616d 	powvsez	f6, f1, #5.0
  20:	0000632e 	andeq	r6, r0, lr, lsr #6
  24:	00000000 	andeq	r0, r0, r0
  28:	02500205 	subseq	r0, r0, #1342177280	; 0x50000000
  2c:	090333f8 	stmdbeq	r3, {r3, r4, r5, r6, r7, r8, r9, ip, sp}
  30:	2e2d1301 	cdpcs	3, 2, cr1, cr13, cr1, {0}
  34:	4d50312f 	ldfmie	f3, [r0, #-188]	; 0xffffff44
  38:	2f4a7903 	svccs	0x004a7903
  3c:	75034d4d 	strvc	r4, [r3, #-3405]	; 0xd4d
  40:	4d4d524a 	sfmmi	f5, 2, [sp, #-296]	; (stclmi 2, cr5, [sp, #-296])	; 0xfffffed8
  44:	2d672f2e 	stclcs	15, cr2, [r7, #-184]!	; 0xffffff48
  48:	2f2f4f6a 	svccs	0x002f4f6a
  4c:	a4674b4b 	strbtge	r4, [r7], #-2891	; 0xb4b
  50:	2f2f2d2f 	svccs	0x002f2d2f
  54:	02003031 	andeq	r3, r0, #49	; 0x31
  58:	00860104 	addeq	r0, r6, r4, lsl #2
  5c:	4b010402 	blmi	4106c <TEXT_BASE-0x33f3ef94>
  60:	01040200 	tsteq	r4, r0, lsl #4
  64:	04020083 	streq	r0, [r2], #-131	; 0x83
  68:	16024b01 	strne	r4, [r2], -r1, lsl #22
  6c:	54010100 	strpl	r0, [r1], #-256	; 0x100
  70:	02000000 	andeq	r0, r0, #0
  74:	00001d00 	andeq	r1, r0, r0, lsl #26
  78:	fb010200 	blx	40882 <TEXT_BASE-0x33f3f77e>
  7c:	01000d0e 	tsteq	r0, lr, lsl #26
  80:	00010101 	andeq	r0, r1, r1, lsl #2
  84:	00010000 	andeq	r0, r1, r0
  88:	75000100 	strvc	r0, [r0, #-256]	; 0x100
  8c:	2e747261 	cdpcs	2, 7, cr7, cr4, cr1, {3}
  90:	00000063 	andeq	r0, r0, r3, rrx
  94:	05000000 	streq	r0, [r0]
  98:	f8038402 	undefined instruction 0xf8038402
  9c:	011c0333 	tsteq	ip, r3, lsr r3
  a0:	4b2b4d13 	blmi	ad34f4 <TEXT_BASE-0x334acb0c>
  a4:	304b4b4c 	subcc	r4, fp, ip, asr #22
  a8:	2f2f2f2c 	svccs	0x002f2f2c
  ac:	02001434 	andeq	r1, r0, #872415232	; 0x34000000
  b0:	2e060104 	adfcss	f0, f6, f4
  b4:	354b6906 	strbcc	r6, [fp, #-2310]	; 0x906
  b8:	04020015 	streq	r0, [r2], #-21
  bc:	062e0601 	strteq	r0, [lr], -r1, lsl #12
  c0:	02024b68 	andeq	r4, r2, #106496	; 0x1a000
  c4:	b0010100 	andlt	r0, r1, r0, lsl #2
  c8:	02000000 	andeq	r0, r0, #0
  cc:	00002000 	andeq	r2, r0, r0
  d0:	fb010200 	blx	408da <TEXT_BASE-0x33f3f726>
  d4:	01000d0e 	tsteq	r0, lr, lsl #26
  d8:	00010101 	andeq	r0, r1, r1, lsl #2
  dc:	00010000 	andeq	r0, r1, r0
  e0:	6e000100 	adfvss	f0, f0, f0
  e4:	5f646e61 	svcpl	0x00646e61
  e8:	632e7063 	teqvs	lr, #99	; 0x63
  ec:	00000000 	andeq	r0, r0, r0
  f0:	02050000 	andeq	r0, r5, #0
  f4:	33f80400 	mvnscc	r0, #0
  f8:	0100ed03 	tsteq	r0, r3, lsl #26
  fc:	4b334517 	blmi	cd1560 <TEXT_BASE-0x332aeaa0>
 100:	75034e4b 	strvc	r4, [r3, #-3659]	; 0xe4b
 104:	2e0b032e 	cdpcs	3, 0, cr0, cr11, cr14, {1}
 108:	7fbf032f 	svcvc	0x00bf032f
 10c:	00c1032e 	sbceq	r0, r1, lr, lsr #6
 110:	7fbc032e 	svcvc	0x00bc032e
 114:	4b67672e 	blmi	19d9dd4 <TEXT_BASE-0x325a622c>
 118:	2e2d0383 	cdpcs	3, 2, cr0, cr13, cr3, {4}
 11c:	032e5303 	teqeq	lr, #201326592	; 0xc000000
 120:	034a00c4 	movteq	r0, #41156	; 0xa0c4
 124:	1d032e63 	stcne	14, cr2, [r3, #-396]	; 0xfffffe74
 128:	d644032e 	strble	r0, [r4], -lr, lsr #6
 12c:	032e2503 	teqeq	lr, #12582912	; 0xc00000
 130:	0a032e61 	beq	cbabc <TEXT_BASE-0x33eb4544>
 134:	6e03302e 	cdpvs	0, 0, cr3, cr3, cr14, {1}
 138:	0336312e 	teqeq	r6, #-2147483637	; 0x8000000b
 13c:	034b2e78 	movteq	r2, #48760	; 0xbe78
 140:	4c342e7a 	ldcmi	14, cr2, [r4], #-488	; 0xfffffe18
 144:	2f2f3130 	svccs	0x002f3130
 148:	69498533 	stmdbvs	r9, {r0, r1, r4, r5, r8, sl, pc}^
 14c:	032e0e03 	teqeq	lr, #48	; 0x30
 150:	0e032e72 	mcreq	14, 0, r2, cr3, cr2, {3}
 154:	2e72032e 	cdpcs	3, 7, cr0, cr2, cr14, {1}
 158:	032e0e03 	teqeq	lr, #48	; 0x30
 15c:	25034a5b 	strcs	r4, [r3, #-2651]	; 0xa5b
 160:	2e5b032e 	cdpcs	3, 5, cr0, cr11, cr14, {1}
 164:	78033631 	stmdavc	r3, {r0, r4, r5, r9, sl, ip, sp}
 168:	312b4b2e 	teqcc	fp, lr, lsr #22
 16c:	2f30304c 	svccs	0x0030304c
 170:	03312f2f 	teqeq	r1, #188	; 0xbc
 174:	0a024a31 	beq	92a40 <TEXT_BASE-0x33eed5c0>
 178:	72010100 	andvc	r0, r1, #0
 17c:	02000000 	andeq	r0, r0, #0
 180:	00002d00 	andeq	r2, r0, r0, lsl #26
 184:	fb010200 	blx	4098e <TEXT_BASE-0x33f3f672>
 188:	01000d0e 	tsteq	r0, lr, lsl #26
 18c:	00010101 	andeq	r0, r1, r1, lsl #2
 190:	00010000 	andeq	r0, r1, r0
 194:	70000100 	andvc	r0, r0, r0, lsl #2
 198:	746e6972 	strbtvc	r6, [lr], #-2418	; 0x972
 19c:	00632e66 	rsbeq	r2, r3, r6, ror #28
 1a0:	76000000 	strvc	r0, [r0], -r0
 1a4:	69727073 	ldmdbvs	r2!, {r0, r1, r4, r5, r6, ip, sp, lr}^
 1a8:	2e66746e 	cdpcs	4, 6, cr7, cr6, cr14, {3}
 1ac:	00000068 	andeq	r0, r0, r8, rrx
 1b0:	05000000 	streq	r0, [r0]
 1b4:	f8058c02 	undefined instruction 0xf8058c02
 1b8:	01100333 	tsteq	r0, r3, lsr r3
 1bc:	302c8450 	eorcc	r8, ip, r0, asr r4
 1c0:	02040200 	andeq	r0, r4, #0
 1c4:	0402004c 	streq	r0, [r2], #-76	; 0x4c
 1c8:	02004802 	andeq	r4, r0, #131072	; 0x20000
 1cc:	2e060104 	adfcss	f0, f6, f4
 1d0:	03a38706 	undefined instruction 0x03a38706
 1d4:	71034a10 	tstvc	r3, r0, lsl sl
 1d8:	4a0f032e 	bmi	3c0e98 <TEXT_BASE-0x33bbf168>
 1dc:	4b4a7703 	blmi	129ddf0 <TEXT_BASE-0x32ce2210>
 1e0:	0a03682f 	beq	da2a4 <TEXT_BASE-0x33ea5d5c>
 1e4:	4a760366 	bmi	1d80f84 <TEXT_BASE-0x321ff07c>
 1e8:	4e2e0a03 	vmulmi.f32	s0, s28, s6
 1ec:	01000a02 	tsteq	r0, r2, lsl #20
 1f0:	00027d01 	andeq	r7, r2, r1, lsl #26
 1f4:	7b000200 	blvc	9fc <TEXT_BASE-0x33f7f604>
 1f8:	02000000 	andeq	r0, r0, #0
 1fc:	0d0efb01 	vstreq	d15, [lr, #-4]
 200:	01010100 	tsteq	r1, r0, lsl #2
 204:	00000001 	andeq	r0, r0, r1
 208:	01000001 	tsteq	r0, r1
 20c:	726f772f 	rsbvc	r7, pc, #12320768	; 0xbc0000
 210:	63652f6b 	cmnvs	r5, #428	; 0x1ac
 214:	7370696c 	cmnvc	r0, #1769472	; 0x1b0000
 218:	72705f65 	rsbsvc	r5, r0, #404	; 0x194
 21c:	63656a6f 	cmnvs	r5, #454656	; 0x6f000
 220:	6c2f7374 	stcvs	3, cr7, [pc], #-464	; 0xfffffe30
 224:	69656675 	stmdbvs	r5!, {r0, r2, r4, r5, r6, r9, sl, sp, lr}^
 228:	68746f2f 	ldmdavs	r4!, {r0, r1, r2, r3, r5, r8, r9, sl, fp, sp, lr}^
 22c:	312f7265 	teqcc	pc, r5, ror #4
 230:	74732e37 	ldrbtvc	r2, [r3], #-3639	; 0xe37
 234:	2f6f6964 	svccs	0x006f6964
 238:	75626564 	strbvc	r6, [r2, #-1380]!	; 0x564
 23c:	6e692f67 	cdpvs	15, 6, cr2, cr9, cr7, {3}
 240:	64756c63 	ldrbtvs	r6, [r5], #-3171	; 0xc63
 244:	73000065 	movwvc	r0, #101	; 0x65
 248:	6e697274 	mcrvs	2, 3, r7, cr9, cr4, {3}
 24c:	00632e67 	rsbeq	r2, r3, r7, ror #28
 250:	63000000 	movwvs	r0, #0
 254:	65707974 	ldrbvs	r7, [r0, #-2420]!	; 0x974
 258:	0100682e 	tsteq	r0, lr, lsr #16
 25c:	74730000 	ldrbtvc	r0, [r3]
 260:	676e6972 	undefined instruction 0x676e6972
 264:	0100682e 	tsteq	r0, lr, lsr #16
 268:	79740000 	ldmdbvc	r4!, {}^
 26c:	2e736570 	mrccs	5, 3, r6, cr3, cr0, {3}
 270:	00010068 	andeq	r0, r1, r8, rrx
 274:	05000000 	streq	r0, [r0]
 278:	f8064c02 	undefined instruction 0xf8064c02
 27c:	011e0333 	tsteq	lr, r3, lsr r3
 280:	04332917 	ldrteq	r2, [r3], #-2327	; 0x917
 284:	01044a02 	tsteq	r4, r2, lsl #20
 288:	364c302e 	strbcc	r3, [ip], -lr, lsr #32
 28c:	302e7803 	eorcc	r7, lr, r3, lsl #16
 290:	0302044c 	movweq	r0, #9292	; 0x244c
 294:	2d2f4a78 	vstmdbcs	pc!, {s8-s127}
 298:	042f2d4b 	strteq	r2, [pc], #3403	; 2a0 <TEXT_BASE-0x33f7fd60>
 29c:	4a0b0301 	bmi	2c0ea8 <TEXT_BASE-0x33cbf158>
 2a0:	7303694c 	movwvc	r6, #14668	; 0x394c
 2a4:	17034c4a 	strne	r4, [r3, -sl, asr #24]
 2a8:	02001566 	andeq	r1, r0, #427819008	; 0x19800000
 2ac:	2e060104 	adfcss	f0, f6, f4
 2b0:	0f03a106 	svceq	0x0003a106
 2b4:	0200152e 	andeq	r1, r0, #192937984	; 0xb800000
 2b8:	2e060104 	adfcss	f0, f6, f4
 2bc:	02040200 	andeq	r0, r4, #0
 2c0:	03be064a 	undefined instruction 0x03be064a
 2c4:	7e152e0a 	cdpvc	14, 1, cr2, cr5, cr10, {0}
 2c8:	04020032 	streq	r0, [r2], #-50	; 0x32
 2cc:	00820601 	addeq	r0, r2, r1, lsl #12
 2d0:	06010402 	streq	r0, [r1], -r2, lsl #8
 2d4:	0e03a230 	mcreq	2, 0, sl, cr3, cr0, {1}
 2d8:	312b152e 	teqcc	fp, lr, lsr #10
 2dc:	01040200 	tsteq	r4, r0, lsl #4
 2e0:	00337d2f 	eorseq	r7, r3, pc, lsr #26
 2e4:	06010402 	streq	r0, [r1], -r2, lsl #8
 2e8:	04020082 	streq	r0, [r2], #-130	; 0x82
 2ec:	00300601 	eorseq	r0, r0, r1, lsl #12
 2f0:	2c010402 	cfstrscs	mvf0, [r1], {2}
 2f4:	01040200 	tsteq	r4, r0, lsl #4
 2f8:	514b6730 	cmppl	fp, r0, lsr r7
 2fc:	014a0a03 	cmpeq	sl, r3, lsl #20
 300:	01040200 	tsteq	r4, r0, lsl #4
 304:	064a064e 	strbeq	r0, [sl], -lr, asr #12
 308:	0b034108 	bleq	d0730 <TEXT_BASE-0x33eaf8d0>
 30c:	004b152e 	subeq	r1, fp, lr, lsr #10
 310:	06010402 	streq	r0, [r1], -r2, lsl #8
 314:	4906e408 	stmdbmi	r6, {r3, sl, sp, lr, pc}
 318:	0a036c83 	beq	db52c <TEXT_BASE-0x33ea4ad4>
 31c:	2b83132e 	blcs	fe0c4fdc <MEM_CTL_BASE+0xb60c4fdc>
 320:	2d2f8131 	stfcsd	f0, [pc, #-196]!	; 0xffffff3c
 324:	032c3084 	teqeq	ip, #132	; 0x84
 328:	13034a0c 	movwne	r4, #14860	; 0x3a0c
 32c:	2e6d0301 	cdpcs	3, 6, cr0, cr13, cr1, {0}
 330:	032e1303 	teqeq	lr, #201326592	; 0xc000000
 334:	14034a6c 	strne	r4, [r3], #-2668	; 0xa6c
 338:	ba6e032e 	blt	1b80ff8 <TEXT_BASE-0x323ff008>
 33c:	2e100330 	mrccs	3, 0, r0, cr0, cr0, {1}
 340:	682e7003 	stmdavs	lr!, {r0, r1, ip, sp, lr}
 344:	09032f4b 	stmdbeq	r3, {r0, r1, r3, r6, r8, r9, sl, fp, sp}
 348:	0062152e 	rsbeq	r1, r2, lr, lsr #10
 34c:	32020402 	andcc	r0, r2, #33554432	; 0x2000000
 350:	69068206 	stmdbvs	r6, {r1, r2, r9, pc}
 354:	152e0a03 	strne	r0, [lr, #-2563]!	; 0xa03
 358:	040200d2 	streq	r0, [r2], #-210	; 0xd2
 35c:	02004e02 	andeq	r4, r0, #32
 360:	82060104 	andhi	r0, r6, #1
 364:	03a10666 	undefined instruction 0x03a10666
 368:	48332e0b 	ldmdami	r3!, {r0, r1, r3, r9, sl, fp, sp}
 36c:	312b6730 	teqcc	fp, r0, lsr r7
 370:	03b9322b 	undefined instruction 0x03b9322b
 374:	7503660a 	strvc	r6, [r3, #-1546]	; 0x60a
 378:	7903354a 	stmdbvc	r3, {r1, r3, r6, r8, sl, ip, sp}
 37c:	6615032e 	ldrvs	r0, [r5], -lr, lsr #6
 380:	04020031 	streq	r0, [r2], #-49	; 0x31
 384:	02009f01 	andeq	r9, r0, #4
 388:	002d0104 	eoreq	r0, sp, r4, lsl #2
 38c:	2f010402 	svccs	0x00010402
 390:	6c65b92f 	stclvs	9, cr11, [r5], #-188	; 0xffffff44
 394:	4a0c032f 	bmi	301058 <TEXT_BASE-0x33c7efa8>
 398:	324d2b31 	subcc	r2, sp, #50176	; 0xc400
 39c:	2c2f4b67 	stccs	11, cr4, [pc], #-412	; 0xfffffe64
 3a0:	4b666603 	blmi	1999bb4 <TEXT_BASE-0x325e644c>
 3a4:	220365b9 	andcs	r6, r3, #775946240	; 0x2e400000
 3a8:	00463082 	subeq	r3, r6, r2, lsl #1
 3ac:	06010402 	streq	r0, [r1], -r2, lsl #8
 3b0:	0402004a 	streq	r0, [r2], #-74	; 0x4a
 3b4:	004b0601 	subeq	r0, fp, r1, lsl #12
 3b8:	4b010402 	blmi	413c8 <TEXT_BASE-0x33f3ec38>
 3bc:	02040200 	andeq	r0, r4, #0
 3c0:	004a7403 	subeq	r7, sl, r3, lsl #8
 3c4:	4b020402 	blmi	813d4 <TEXT_BASE-0x33efec2c>
 3c8:	034a0d03 	movteq	r0, #44291	; 0xad03
 3cc:	2d136610 	ldccs	6, cr6, [r3, #-64]	; 0xffffffc0
 3d0:	4a490331 	bmi	124109c <TEXT_BASE-0x32d3ef64>
 3d4:	65b94b9f 	ldrvs	r4, [r9, #2975]!	; 0xb9f
 3d8:	31823d03 	orrcc	r3, r2, r3, lsl #26
 3dc:	034b2f61 	movteq	r2, #48993	; 0xbf61
 3e0:	83154a10 	tsthi	r5, #65536	; 0x10000
 3e4:	11034e49 	tstne	r3, r9, asr #28
 3e8:	6567162e 	strbvs	r1, [r7, #-1582]!	; 0x62e
 3ec:	15661003 	strbne	r1, [r6, #-3]!
 3f0:	034e6567 	movteq	r6, #58727	; 0xe567
 3f4:	4d152e0d 	ldcmi	14, cr2, [r5, #-52]	; 0xffffffcc
 3f8:	496c6567 	stmdbmi	ip!, {r0, r1, r2, r5, r6, r8, sl, sp, lr}^
 3fc:	2f2d312d 	svccs	0x002d312d
 400:	0b03332d 	bleq	cd0bc <TEXT_BASE-0x33eb2f44>
 404:	4c2a162e 	stcmi	6, cr1, [sl], #-184	; 0xffffff48
 408:	1f082f30 	svcne	0x00082f30
 40c:	1103474e 	tstne	r3, lr, asr #14
 410:	312b154a 	teqcc	fp, sl, asr #10
 414:	9d33452f 	cfldr32ls	mvfx4, [r3, #-188]!	; 0xffffff44
 418:	03352d2f 	teqeq	r5, #3008	; 0xbc0
 41c:	f2032e0a 	vceq.f32	d2, d3, d10
 420:	8e03017d 	mcrhi	1, 0, r0, cr3, cr13, {3}
 424:	f2032e02 	vceq.f32	d2, d3, d2
 428:	8d032e7d 	stchi	14, cr2, [r3, #-500]	; 0xfffffe0c
 42c:	f3034a02 	vpmax.u8	d4, d3, d2
 430:	92032e7d 	andls	r2, r3, #2000	; 0x7d0
 434:	0a038202 	beq	e0c44 <TEXT_BASE-0x33e9f3bc>
 438:	7de4034a 	stclvc	3, cr0, [r4, #296]!	; 0x128
 43c:	028d034a 	addeq	r0, sp, #671088641	; 0x28000001
 440:	7df30382 	ldclvc	3, cr0, [r3, #520]!	; 0x208
 444:	9303842e 	movwls	r8, #13358	; 0x342e
 448:	53032e02 	movwpl	r2, #15874	; 0x3e02
 44c:	4b9d4b4a 	blmi	fe75317c <MEM_CTL_BASE+0xb675317c>
 450:	2d822d03 	stccs	13, cr2, [r2, #12]
 454:	4a0f036c 	bmi	3c120c <TEXT_BASE-0x33bbedf4>
 458:	002f2d15 	eoreq	r2, pc, r5, lsl sp
 45c:	81010402 	tsthi	r1, r2, lsl #8
 460:	01040200 	tsteq	r4, r0, lsl #4
 464:	0402002f 	streq	r0, [r2], #-47	; 0x2f
 468:	47332d01 	ldrmi	r2, [r3, -r1, lsl #26]!
 46c:	00020232 	andeq	r0, r2, r2, lsr r2
 470:	05d40101 	ldrbeq	r0, [r4, #257]	; 0x101
 474:	00020000 	andeq	r0, r2, r0
 478:	0000007f 	andeq	r0, r0, pc, ror r0
 47c:	0efb0102 	cdpeq	1, 15, cr0, cr11, cr2, {0}
 480:	0101000d 	tsteq	r1, sp
 484:	00000101 	andeq	r0, r0, r1, lsl #2
 488:	00000100 	andeq	r0, r0, r0, lsl #2
 48c:	6f772f01 	svcvs	0x00772f01
 490:	652f6b72 	strvs	r6, [pc, #-2930]!	; fffff926 <MEM_CTL_BASE+0xb7fff926>
 494:	70696c63 	rsbvc	r6, r9, r3, ror #24
 498:	705f6573 	subsvc	r6, pc, r3, ror r5
 49c:	656a6f72 	strbvs	r6, [sl, #-3954]!	; 0xf72
 4a0:	2f737463 	svccs	0x00737463
 4a4:	6566756c 	strbvs	r7, [r6, #-1388]!	; 0x56c
 4a8:	746f2f69 	strbtvc	r2, [pc], #3945	; 4b0 <TEXT_BASE-0x33f7fb50>
 4ac:	2f726568 	svccs	0x00726568
 4b0:	732e3731 	teqvc	lr, #12845056	; 0xc40000
 4b4:	6f696474 	svcvs	0x00696474
 4b8:	6265642f 	rsbvs	r6, r5, #788529152	; 0x2f000000
 4bc:	692f6775 	stmdbvs	pc!, {r0, r2, r4, r5, r6, r8, r9, sl, sp, lr}
 4c0:	756c636e 	strbvc	r6, [ip, #-878]!	; 0x36e
 4c4:	00006564 	andeq	r6, r0, r4, ror #10
 4c8:	72707376 	rsbsvc	r7, r0, #-671088639	; 0xd8000001
 4cc:	66746e69 	ldrbtvs	r6, [r4], -r9, ror #28
 4d0:	0000632e 	andeq	r6, r0, lr, lsr #6
 4d4:	74630000 	strbtvc	r0, [r3]
 4d8:	2e657079 	mcrcs	0, 3, r7, cr5, cr9, {3}
 4dc:	00010068 	andeq	r0, r1, r8, rrx
 4e0:	70797400 	rsbsvc	r7, r9, r0, lsl #8
 4e4:	682e7365 	stmdavs	lr!, {r0, r2, r5, r6, r8, r9, ip, sp, lr}
 4e8:	00000100 	andeq	r0, r0, r0, lsl #2
 4ec:	72707376 	rsbsvc	r7, r0, #-671088639	; 0xd8000001
 4f0:	66746e69 	ldrbtvs	r6, [r4], -r9, ror #28
 4f4:	0000682e 	andeq	r6, r0, lr, lsr #16
 4f8:	00000000 	andeq	r0, r0, r0
 4fc:	0dd00205 	lfmeq	f0, 2, [r0, #20]	; (ldcleq 2, cr0, [r0, #20])
 500:	940333f8 	strls	r3, [r3], #-1016	; 0x3f8
 504:	354a0101 	strbcc	r0, [sl, #-257]	; 0x101
 508:	352e7903 	strcc	r7, [lr, #-2307]!	; 0x903
 50c:	36667903 	strbtcc	r7, [r6], -r3, lsl #18
 510:	032f2d30 	teqeq	pc, #3072	; 0xc00
 514:	0a032e76 	beq	cbef4 <TEXT_BASE-0x33eb410c>
 518:	2c68302e 	stclcs	0, cr3, [r8], #-184	; 0xffffff48
 51c:	0e032d30 	mcreq	13, 0, r2, cr3, cr0, {1}
 520:	2f4c672e 	svccs	0x004c672e
 524:	32838369 	addcc	r8, r3, #-1543503871	; 0xa4000001
 528:	2f2d6b2a 	svccs	0x002d6b2a
 52c:	01040200 	tsteq	r4, r0, lsl #4
 530:	8255032f 	subshi	r0, r5, #-1140850688	; 0xbc000000
 534:	2d662d03 	stclcs	13, cr2, [r6, #-12]!
 538:	a42b2f2f 	strtge	r2, [fp], #-3887	; 0xf2f
 53c:	302f2f67 	eorcc	r2, pc, r7, ror #30
 540:	09034e67 	stmdbeq	r3, {r0, r1, r2, r5, r6, r9, sl, fp, lr}
 544:	0402004a 	streq	r0, [r2], #-74	; 0x4a
 548:	bb034b01 	bllt	d3154 <TEXT_BASE-0x33eaceac>
 54c:	c603827f 	undefined instruction 0xc603827f
 550:	2f2f4a00 	svccs	0x002f4a00
 554:	0402002b 	streq	r0, [r2], #-43	; 0x2b
 558:	4a066c01 	bmi	19b564 <TEXT_BASE-0x33de4a9c>
 55c:	b3033006 	movwlt	r3, #12294	; 0x3006
 560:	cc032e7f 	stcgt	14, cr2, [r3], {127}	; 0x7f
 564:	032f2e00 	teqeq	pc, #0
 568:	034a7fb3 	movteq	r7, #44979	; 0xafb3
 56c:	032e00cb 	teqeq	lr, #203	; 0xcb
 570:	034a7fb5 	movteq	r7, #44981	; 0xafb5
 574:	342e00cb 	strtcc	r0, [lr], #-203	; 0xcb
 578:	2b31642f 	blcs	c5963c <TEXT_BASE-0x333269c4>
 57c:	31642f4b 	cmncc	r4, fp, asr #30
 580:	302c332b 	eorcc	r3, ip, fp, lsr #6
 584:	2e7fab03 	vaddcs.f64	d26, d15, d3
 588:	2e00d703 	cdpcs	7, 0, cr13, cr0, cr3, {0}
 58c:	2b2f2f2d 	blcs	bcc248 <TEXT_BASE-0x333b3db8>
 590:	664b036c 	strbvs	r0, [fp], -ip, ror #6
 594:	03492f9d 	movteq	r2, #40861	; 0x9f9d
 598:	4d4e666b 	stclmi	6, cr6, [lr, #-428]	; 0xfffffe54
 59c:	492f2d4c 	stmdbmi	pc!, {r2, r3, r6, r8, sl, fp, sp}
 5a0:	034a7403 	movteq	r7, #41987	; 0xa403
 5a4:	2f2d4a0a 	svccs	0x002d4a0a
 5a8:	4a270349 	bmi	9c12d4 <TEXT_BASE-0x335bed2c>
 5ac:	2f2f4b2f 	svccs	0x002f4b2f
 5b0:	4a77034b 	bmi	1dc12e4 <TEXT_BASE-0x321bed1c>
 5b4:	64034b2f 	strvs	r4, [r3], #-2863	; 0xb2f
 5b8:	8275034a 	rsbshi	r0, r5, #671088641	; 0x28000001
 5bc:	4b2d302c 	blmi	b4c674 <TEXT_BASE-0x3343398c>
 5c0:	7f81032c 	svcvc	0x0081032c
 5c4:	2e2b1566 	cfsh64cs	mvdx1, mvdx11, #54
 5c8:	03b93031 	undefined instruction 0x03b93031
 5cc:	02004a09 	andeq	r4, r0, #36864	; 0x9000
 5d0:	50be0104 	adcspl	r0, lr, r4, lsl #2
 5d4:	032e6d03 	teqeq	lr, #192	; 0xc0
 5d8:	2c304a0d 	ldccs	10, cr4, [r0], #-52	; 0xffffffcc
 5dc:	032e6e03 	teqeq	lr, #48	; 0x30
 5e0:	04832e12 	streq	r2, [r3], #3602	; 0xe12
 5e4:	04020002 	streq	r0, [r2], #-2
 5e8:	66730302 	ldrbtvs	r0, [r3], -r2, lsl #6
 5ec:	02040200 	andeq	r0, r4, #0
 5f0:	0001042f 	andeq	r0, r1, pc, lsr #8
 5f4:	03020402 	movweq	r0, #9218	; 0x2402
 5f8:	02004a0c 	andeq	r4, r0, #49152	; 0xc000
 5fc:	4f2d0304 	svcmi	0x002d0304
 600:	7503302f 	strvc	r3, [r3, #-47]	; 0x2f
 604:	d67a034a 	ldrbtle	r0, [sl], -sl, asr #6
 608:	832b0204 	teqhi	fp, #1073741824	; 0x40000000
 60c:	31010449 	tstcc	r1, r9, asr #8
 610:	04020048 	streq	r0, [r2], #-72	; 0x48
 614:	9e064c01 	cdpls	12, 0, cr4, cr6, cr1, {0}
 618:	2e090306 	cdpcs	3, 0, cr0, cr9, cr6, {0}
 61c:	304a7703 	subcc	r7, sl, r3, lsl #14
 620:	01040200 	tsteq	r4, r0, lsl #4
 624:	0002044e 	andeq	r0, r2, lr, asr #8
 628:	03010402 	movweq	r0, #5122	; 0x1402
 62c:	02002e77 	andeq	r2, r0, #1904	; 0x770
 630:	04670104 	strbteq	r0, [r7], #-260	; 0x104
 634:	04020001 	streq	r0, [r2], #-1
 638:	02005201 	andeq	r5, r0, #268435456	; 0x10000000
 63c:	002f0104 	eoreq	r0, pc, r4, lsl #2
 640:	2d010402 	cfstrscs	mvf0, [r1, #-8]
 644:	01040200 	tsteq	r4, r0, lsl #4
 648:	8215034b 	andshi	r0, r5, #738197505	; 0x2c000001
 64c:	2d2d692f 	stccs	9, cr6, [sp, #-188]!	; 0xffffff44
 650:	4a0b034c 	bmi	2c1388 <TEXT_BASE-0x33cbec78>
 654:	312e2b31 	teqcc	lr, r1, lsr fp
 658:	0903b930 	stmdbeq	r3, {r4, r5, r8, fp, ip, sp, pc}
 65c:	0402004a 	streq	r0, [r2], #-74	; 0x4a
 660:	0200be01 	andeq	fp, r0, #16
 664:	00880204 	addeq	r0, r8, r4, lsl #4
 668:	03020402 	movweq	r0, #9218	; 0x2402
 66c:	0f032e6d 	svceq	0x00032e6d
 670:	2c306466 	cfldrscs	mvf6, [r0], #-408	; 0xfffffe68
 674:	6e034830 	mcrvs	8, 0, r4, cr3, cr0, {1}
 678:	2e12032e 	cdpcs	3, 1, cr0, cr2, cr14, {1}
 67c:	02040200 	andeq	r0, r4, #0
 680:	02046606 	andeq	r6, r4, #6291456	; 0x600000
 684:	02040200 	andeq	r0, r4, #0
 688:	9e420306 	cdpls	3, 4, cr0, cr2, cr6, {0}
 68c:	02000104 	andeq	r0, r0, #1
 690:	3f030204 	svccc	0x00030204
 694:	0402002e 	streq	r0, [r2], #-46	; 0x2e
 698:	02002d02 	andeq	r2, r0, #128	; 0x80
 69c:	4a060504 	bmi	181ab4 <TEXT_BASE-0x33dfe54c>
 6a0:	05040200 	streq	r0, [r4, #-512]	; 0x200
 6a4:	4a6e0306 	bmi	1b812c4 <TEXT_BASE-0x323fed3c>
 6a8:	05040200 	streq	r0, [r4, #-512]	; 0x200
 6ac:	872e1203 	strhi	r1, [lr, -r3, lsl #4]!
 6b0:	6f03304b 	svcvs	0x0003304b
 6b4:	0302049e 	movweq	r0, #9374	; 0x249e
 6b8:	49832e4a 	stmibmi	r3, {r1, r3, r6, r9, sl, fp, sp}
 6bc:	36030104 	strcc	r0, [r3], -r4, lsl #2
 6c0:	0052482e 	subseq	r4, r2, lr, lsr #16
 6c4:	03010402 	movweq	r0, #5122	; 0x1402
 6c8:	0903d67a 	stmdbeq	r3, {r1, r3, r4, r5, r6, r9, sl, ip, lr, pc}
 6cc:	2e77039e 	mrccs	3, 3, r0, cr7, cr14, {4}
 6d0:	032e0903 	teqeq	lr, #49152	; 0xc000
 6d4:	09032e77 	stmdbeq	r3, {r0, r1, r2, r4, r5, r6, r9, sl, fp, sp}
 6d8:	04020082 	streq	r0, [r2], #-130	; 0x82
 6dc:	02046301 	andeq	r6, r4, #67108864	; 0x4000000
 6e0:	01040200 	tsteq	r4, r0, lsl #4
 6e4:	002e4403 	eoreq	r4, lr, r3, lsl #8
 6e8:	67010402 	strvs	r0, [r1, -r2, lsl #8]
 6ec:	02000104 	andeq	r0, r0, #1
 6f0:	3b030104 	blcc	c0b08 <TEXT_BASE-0x33ebf4f8>
 6f4:	0402004a 	streq	r0, [r2], #-74	; 0x4a
 6f8:	02002f01 	andeq	r2, r0, #4
 6fc:	002d0104 	eoreq	r0, sp, r4, lsl #2
 700:	4b010402 	blmi	41710 <TEXT_BASE-0x33f3e8f0>
 704:	2f821503 	svccs	0x00821503
 708:	842d2d69 	strthi	r2, [sp], #-3433	; 0xd69
 70c:	66018303 	strvs	r8, [r1], -r3, lsl #6
 710:	032e1103 	teqeq	lr, #-1073741824	; 0xc0000000
 714:	11032e6f 	tstne	r3, pc, ror #28
 718:	2e6f032e 	cdpcs	3, 6, cr0, cr15, cr14, {1}
 71c:	03661103 	cmneq	r6, #-1073741824	; 0xc0000000
 720:	2c302e09 	ldccs	14, cr2, [r0], #-36	; 0xffffffdc
 724:	2a4d304c 	bcs	134c85c <TEXT_BASE-0x32c337a4>
 728:	66160332 	undefined instruction 0x66160332
 72c:	032e6a03 	teqeq	lr, #12288	; 0x3000
 730:	032e00e9 	teqeq	lr, #233	; 0xe9
 734:	032e7f98 	teqeq	lr, #608	; 0x260
 738:	23032e5d 	movwcs	r2, #15965	; 0x3e5d
 73c:	032f2f4a 	teqeq	pc, #296	; 0x128
 740:	032e01a3 	teqeq	lr, #-1073741784	; 0xc0000028
 744:	032e7eda 	teqeq	lr, #3488	; 0xda0
 748:	2f9e01c0 	svccs	0x009e01c0
 74c:	4f4c3049 	svcmi	0x004c3049
 750:	4a7ec703 	bmi	1fb2364 <TEXT_BASE-0x31fcdc9c>
 754:	352e7503 	strcc	r7, [lr, #-1283]!	; 0x503
 758:	46172c02 	ldrmi	r2, [r7], -r2, lsl #24
 75c:	03514b4b 	cmpeq	r1, #76800	; 0x12c00
 760:	85036648 	strhi	r6, [r3, #-1608]	; 0x648
 764:	2f494a7f 	svccs	0x00494a7f
 768:	032d2f2d 	teqeq	sp, #180	; 0xb4
 76c:	2d4a01c2 	stfcse	f0, [sl, #-776]	; 0xfffffcf8
 770:	2e0f032f 	cdpcs	3, 0, cr0, cr15, cr15, {1}
 774:	01040200 	tsteq	r4, r0, lsl #4
 778:	83066606 	movwhi	r6, #26118	; 0x6606
 77c:	0c03302c 	stceq	0, cr3, [r3], {44}	; 0x2c
 780:	0277032e 	rsbseq	r0, r7, #-1207959552	; 0xb8000000
 784:	2d0101b0 	stfcss	f0, [r1, #-704]	; 0xfffffd40
 788:	0200302d 	andeq	r3, r0, #45	; 0x2d
 78c:	4a060104 	bmi	180ba4 <TEXT_BASE-0x33dff45c>
 790:	01040200 	tsteq	r4, r0, lsl #4
 794:	02004c06 	andeq	r4, r0, #1536	; 0x600
 798:	032d0104 	teqeq	sp, #1
 79c:	312b4a60 	teqcc	fp, r0, ror #20
 7a0:	2c332c31 	ldccs	12, cr2, [r3], #-196	; 0xffffff3c
 7a4:	2d342f2f 	ldccs	15, cr2, [r4, #-188]!	; 0xffffff44
 7a8:	2f2d302f 	svccs	0x002d302f
 7ac:	827fb803 	rsbshi	fp, pc, #196608	; 0x30000
 7b0:	4a7f8503 	bmi	1fe1bc4 <TEXT_BASE-0x31f9e43c>
 7b4:	4b2d2f2d 	blmi	b4c470 <TEXT_BASE-0x33433b90>
 7b8:	032d2f2d 	teqeq	sp, #180	; 0xb4
 7bc:	4b2e01cb 	blmi	b80ef0 <TEXT_BASE-0x333ff110>
 7c0:	032f522d 	teqeq	pc, #-805306366	; 0xd0000002
 7c4:	2c694a72 	stclcs	10, cr4, [r9], #-456	; 0xfffffe38
 7c8:	032d4b32 	teqeq	sp, #51200	; 0xc800
 7cc:	ee034a11 	mcr	10, 0, r4, cr3, cr1, {0}
 7d0:	4e4c2e00 	cdpmi	14, 4, cr2, cr12, cr0, {0}
 7d4:	4a0a0367 	bmi	281578 <TEXT_BASE-0x33cfea88>
 7d8:	f27f9803 	vadd.i64	d25, d15, d3
 7dc:	00688430 	rsbeq	r8, r8, r0, lsr r4
 7e0:	4b010402 	blmi	417f0 <TEXT_BASE-0x33f3e810>
 7e4:	827f8203 	rsbshi	r8, pc, #805306368	; 0x30000000
 7e8:	4a00ff03 	bmi	403fc <TEXT_BASE-0x33f3fc04>
 7ec:	7f80032f 	svcvc	0x0080032f
 7f0:	00fe0366 	rscseq	r0, lr, r6, ror #6
 7f4:	7f82032e 	svcvc	0x0082032e
 7f8:	0184034a 	orreq	r0, r4, sl, asr #6
 7fc:	7efc03ba 	mrcvc	3, 7, r0, cr12, cr10, {5}
 800:	01850366 	orreq	r0, r5, r6, ror #6
 804:	00482f2e 	subeq	r2, r8, lr, lsr #30
 808:	87010402 	strhi	r0, [r1, -r2, lsl #8]
 80c:	03064a06 	movweq	r4, #27142	; 0x6a06
 810:	032e7ef7 	teqeq	lr, #3952	; 0xf70
 814:	2f2e018a 	svccs	0x002e018a
 818:	667ef503 	ldrbtvs	pc, [lr], -r3, lsl #10
 81c:	2e018903 	cdpcs	9, 0, cr8, cr1, cr3, {0}
 820:	4a7ef703 	bmi	1fbe434 <TEXT_BASE-0x31fc1bcc>
 824:	2e018903 	cdpcs	9, 0, cr8, cr1, cr3, {0}
 828:	312d3052 	qsubcc	r3, r2, sp
 82c:	03ba3903 	undefined instruction 0x03ba3903
 830:	1c032e64 	stcne	14, cr2, [r3], {100}	; 0x64
 834:	69032f2e 	stmdbvs	r3, {r1, r2, r3, r5, r8, r9, sl, fp, sp}
 838:	4a73034a 	bmi	1cc1568 <TEXT_BASE-0x322bea98>
 83c:	6616032f 	ldrvs	r0, [r6], -pc, lsr #6
 840:	332f672f 	teqcc	pc, #12320768	; 0xbc0000
 844:	032f2f29 	teqeq	pc, #164	; 0xa4
 848:	17034a5f 	smlsdne	r3, pc, sl, r4
 84c:	7fa3039e 	svcvc	0x00a3039e
 850:	02004e2e 	andeq	r4, r0, #736	; 0x2e0
 854:	034b0104 	movteq	r0, #45316	; 0xb104
 858:	03827f9b 	orreq	r7, r2, #620	; 0x26c
 85c:	2f6600e6 	svccs	0x006600e6
 860:	2f882b4b 	svccs	0x00882b4b
 864:	2f2d322d 	svccs	0x002d322d
 868:	2e7f9103 	expcse	f1, f3
 86c:	2e00ee03 	cdpcs	14, 0, cr14, cr0, cr3, {0}
 870:	2b4b2f30 	blcs	12cc538 <TEXT_BASE-0x32cb3ac8>
 874:	4a7f9103 	bmi	1fe4c88 <TEXT_BASE-0x31f9b378>
 878:	2e00ef03 	cdpcs	15, 0, cr14, cr0, cr3, {0}
 87c:	4a00c703 	bmi	32490 <TEXT_BASE-0x33f4db70>
 880:	4a1e0330 	bmi	781548 <TEXT_BASE-0x337feab8>
 884:	302d2f4f 	eorcc	r2, sp, pc, asr #30
 888:	2f4a7a03 	svccs	0x004a7a03
 88c:	95034c2d 	strls	r4, [r3, #-3117]	; 0xc2d
 890:	a803667f 	stmdage	r3, {r0, r1, r2, r3, r4, r5, r6, r9, sl, sp, lr}
 894:	03674a7f 	cmneq	r7, #520192	; 0x7f000
 898:	2e9e01e7 	fmlcs<illegal precision>z	f0, f6, f7
 89c:	034b2f31 	movteq	r2, #48945	; 0xbf31
 8a0:	694f2e11 	stmdbvs	pc, {r0, r4, r9, sl, fp, sp}^
 8a4:	4f661103 	svcmi	0x00661103
 8a8:	4b303345 	blmi	c0d5c4 <TEXT_BASE-0x33372a3c>
 8ac:	01661103 	cmneq	r6, r3, lsl #2
 8b0:	03114b4b 	tsteq	r1, #76800	; 0x12c00
 8b4:	09032e10 	stmdbeq	r3, {r4, r9, sl, fp, sp}
 8b8:	0b036d4a 	bleq	dbde8 <TEXT_BASE-0x33ea4218>
 8bc:	2e0f0366 	cdpcs	3, 0, cr0, cr15, cr6, {3}
 8c0:	4e2e7103 	sufmie	f7, f6, f3
 8c4:	032a322a 	teqeq	sl, #-1610612734	; 0xa0000002
 8c8:	02002e10 	andeq	r2, r0, #256	; 0x100
 8cc:	7a030104 	bvc	c0ce4 <TEXT_BASE-0x33ebf31c>
 8d0:	0402004a 	streq	r0, [r2], #-74	; 0x4a
 8d4:	064a0602 	strbeq	r0, [sl], -r2, lsl #12
 8d8:	6670036b 	ldrbtvs	r0, [r0], -fp, ror #6
 8dc:	2d2e1103 	stfcss	f1, [lr, #-12]!
 8e0:	6d03842f 	cfstrsvs	mvf8, [r3, #-188]	; 0xffffff44
 8e4:	2e130366 	cdpcs	3, 1, cr0, cr3, cr6, {3}
 8e8:	b7039fa3 	strlt	r9, [r3, -r3, lsr #31]
 8ec:	ce036601 	cfmadd32gt	mvax0, mvfx6, mvfx3, mvfx1
 8f0:	2951667e 	ldmdbcs	r1, {r1, r2, r3, r4, r5, r6, r9, sl, sp, lr}^
 8f4:	4a0a0333 	bmi	2815c8 <TEXT_BASE-0x33cfea38>
 8f8:	51032f49 	tstpl	r3, r9, asr #30
 8fc:	7c94032e 	ldcvc	3, cr0, [r4], {46}	; 0x2e
 900:	2d2f492e 	stccs	9, cr4, [pc, #-184]!	; 0xffffff48
 904:	a1032d2f 	tstge	r3, pc, lsr #26
 908:	2f684a04 	svccs	0x00684a04
 90c:	00660d03 	rsbeq	r0, r6, r3, lsl #26
 910:	06010402 	streq	r0, [r1], -r2, lsl #8
 914:	0069064a 	rsbeq	r0, r9, sl, asr #12
 918:	03010402 	movweq	r0, #5122	; 0x1402
 91c:	01b2026d 	undefined instruction 0x01b2026d
 920:	302c8301 	eorcc	r8, ip, r1, lsl #6
 924:	004a6403 	subeq	r6, sl, r3, lsl #8
 928:	03010402 	movweq	r0, #5122	; 0x1402
 92c:	5a03660d 	bpl	da168 <TEXT_BASE-0x33ea5e98>
 930:	04020082 	streq	r0, [r2], #-130	; 0x82
 934:	4a260302 	bmi	981544 <TEXT_BASE-0x335feabc>
 938:	02004a06 	andeq	r4, r0, #24576	; 0x6000
 93c:	a0060104 	andge	r0, r6, r4, lsl #2
 940:	03068206 	movweq	r8, #25094	; 0x6206
 944:	28032e58 	stmdacs	r3, {r3, r4, r6, r9, sl, fp, sp}
 948:	0402002e 	streq	r0, [r2], #-46	; 0x2e
 94c:	064a0602 	strbeq	r0, [sl], -r2, lsl #12
 950:	d2033048 	andle	r3, r3, #72	; 0x48
 954:	77039e00 	strvc	r9, [r3, -r0, lsl #28]
 958:	2e51039e 	mrccs	3, 2, r0, cr1, cr14, {4}
 95c:	002e2e03 	eoreq	r2, lr, r3, lsl #28
 960:	03010402 	movweq	r0, #5122	; 0x1402
 964:	02002e15 	andeq	r2, r0, #336	; 0x150
 968:	fb030104 	blx	c0d82 <TEXT_BASE-0x33ebf27e>
 96c:	02004a7e 	andeq	r4, r0, #516096	; 0x7e000
 970:	85030104 	strhi	r0, [r3, #-260]	; 0x104
 974:	75034a01 	strvc	r4, [r3, #-2561]	; 0xa01
 978:	2e0b032e 	cdpcs	3, 0, cr0, cr11, cr14, {1}
 97c:	4b3083a2 	blmi	c2180c <TEXT_BASE-0x3335e7f4>
 980:	02004b4b 	andeq	r4, r0, #76800	; 0x12c00
 984:	4a060104 	bmi	180d9c <TEXT_BASE-0x33dff264>
 988:	03240806 	teqeq	r4, #393216	; 0x60000
 98c:	016e022d 	cmneq	lr, sp, lsr #4
 990:	032f2d68 	teqeq	pc, #6656	; 0x1a00
 994:	302c4a09 	eorcc	r4, ip, r9, lsl #20
 998:	827f8103 	rsbshi	r8, pc, #-1073741824	; 0xc0000000
 99c:	b403302c 	strlt	r3, [r3], #-44	; 0x2c
 9a0:	02002e7f 	andeq	r2, r0, #2032	; 0x7f0
 9a4:	cf030104 	svcgt	0x00030104
 9a8:	02002e00 	andeq	r2, r0, #0
 9ac:	00490104 	subeq	r0, r9, r4, lsl #2
 9b0:	4b010402 	blmi	419c0 <TEXT_BASE-0x33f3e640>
 9b4:	4c821203 	sfmmi	f1, 4, [r2], {3}	; (stcmi 2, cr1, [r2], {3})
 9b8:	032e6403 	teqeq	lr, #50331648	; 0x3000000
 9bc:	4c032e2e 	stcmi	14, cr2, [r3], {46}	; 0x2e
 9c0:	4a27032e 	bmi	9c1680 <TEXT_BASE-0x335be980>
 9c4:	55033184 	strpl	r3, [r3, #-388]	; 0x184
 9c8:	2e2a032e 	cdpcs	3, 2, cr0, cr10, cr14, {1}
 9cc:	2e6c032f 	cdpcs	3, 6, cr0, cr12, cr15, {1}
 9d0:	322a4c2c 	eorcc	r4, sl, #11264	; 0x2c00
 9d4:	2e7fa703 	cdpcs	7, 7, cr10, cr15, cr3, {0}
 9d8:	2e00d903 	cdpcs	9, 0, cr13, cr0, cr3, {0}
 9dc:	040200a2 	streq	r0, [r2], #-162	; 0xa2
 9e0:	00d60602 	sbcseq	r0, r6, r2, lsl #12
 9e4:	66010402 	strvs	r0, [r1], -r2, lsl #8
 9e8:	03494b06 	movteq	r4, #39686	; 0x9b06
 9ec:	032e7fa3 	teqeq	lr, #652	; 0x28c
 9f0:	692e00dd 	stmdbvs	lr!, {r0, r2, r3, r4, r6, r7}
 9f4:	29666703 	stmdbcs	r6!, {r0, r1, r8, r9, sl, sp, lr}^
 9f8:	6634032d 	ldrtvs	r0, [r4], -sp, lsr #6
 9fc:	00d2032c 	sbcseq	r0, r2, ip, lsr #6
 a00:	032f2d4a 	teqeq	pc, #4736	; 0x1280
 a04:	2d68666b 	stclcs	6, cr6, [r8, #-428]!	; 0xfffffe54
 a08:	6663032f 	strbtvs	r0, [r3], -pc, lsr #6
 a0c:	6d2f2d68 	stcvs	13, cr2, [pc, #-416]!	; 0xfffffe60
 a10:	032f2d68 	teqeq	pc, #6656	; 0x1a00
 a14:	02006670 	andeq	r6, r0, #117440512	; 0x7000000
 a18:	4a060104 	bmi	180e30 <TEXT_BASE-0x33dff1d0>
 a1c:	01040200 	tsteq	r4, r0, lsl #4
 a20:	16037f06 	strne	r7, [r3], -r6, lsl #30
 a24:	032f2d82 	teqeq	pc, #8320	; 0x2080
 a28:	2f2d6677 	svccs	0x002d6677
 a2c:	2d661b03 	fstmdbxcs	r6!, {d17}	;@ Deprecated
 a30:	7fa4032f 	svcvc	0x00a4032f
 a34:	5b034e66 	blpl	d43d4 <TEXT_BASE-0x33eabc2c>
 a38:	2d2d304a 	stccs	0, cr3, [sp, #-296]!	; 0xfffffed8
 a3c:	032d3031 	teqeq	sp, #49	; 0x31
 a40:	4f66019f 	svcmi	0x0066019f
 a44:	00060269 	andeq	r0, r6, r9, ror #4
 a48:	00830101 	addeq	r0, r3, r1, lsl #2
 a4c:	00020000 	andeq	r0, r2, r0
 a50:	0000001e 	andeq	r0, r0, lr, lsl r0
 a54:	0efb0102 	cdpeq	1, 15, cr0, cr11, cr2, {0}
 a58:	0101000d 	tsteq	r1, sp
 a5c:	00000101 	andeq	r0, r0, r1, lsl #2
 a60:	00000100 	andeq	r0, r0, r0, lsl #2
 a64:	69640001 	stmdbvs	r4!, {r0}^
 a68:	2e343676 	mrccs	6, 1, r3, cr4, cr6, {3}
 a6c:	00000053 	andeq	r0, r0, r3, asr r0
 a70:	05000000 	streq	r0, [r0]
 a74:	f822a002 	undefined instruction 0xf822a002
 a78:	01390333 	teqeq	r9, r3, lsr r3
 a7c:	312f2f2f 	teqcc	pc, pc, lsr #30
 a80:	11032f2f 	tstne	r3, pc, lsr #30
 a84:	2f2f2f2e 	svccs	0x002f2f2e
 a88:	342f2f2f 	strtcc	r2, [pc], #3887	; a90 <TEXT_BASE-0x33f7f570>
 a8c:	2f2f2f2f 	svccs	0x002f2f2f
 a90:	2f2f312f 	svccs	0x002f312f
 a94:	2f332f2f 	svccs	0x00332f2f
 a98:	2f2f2f2f 	svccs	0x002f2f2f
 a9c:	2f2f2f2f 	svccs	0x002f2f2f
 aa0:	032f2f33 	teqeq	pc, #204	; 0xcc
 aa4:	2f2f2e0d 	svccs	0x002f2e0d
 aa8:	2f2f2f36 	svccs	0x002f2f36
 aac:	2f2e0c03 	svccs	0x002e0c03
 ab0:	302f2f2f 	eorcc	r2, pc, pc, lsr #30
 ab4:	2f302f2f 	svccs	0x00302f2f
 ab8:	2f2f302f 	svccs	0x002f302f
 abc:	2f2f2f32 	svccs	0x002f2f32
 ac0:	312f2f2f 	teqcc	pc, pc, lsr #30
 ac4:	312f2f2f 	teqcc	pc, pc, lsr #30
 ac8:	2f2f2f32 	svccs	0x002f2f32
 acc:	01000202 	tsteq	r0, r2, lsl #4
 ad0:	00006901 	andeq	r6, r0, r1, lsl #18
 ad4:	63000200 	movwvs	r0, #512	; 0x200
 ad8:	02000000 	andeq	r0, r0, #0
 adc:	0d0efb01 	vstreq	d15, [lr, #-4]
 ae0:	01010100 	tsteq	r1, r0, lsl #2
 ae4:	00000001 	andeq	r0, r0, r1
 ae8:	01000001 	tsteq	r0, r1
 aec:	726f772f 	rsbvc	r7, pc, #12320768	; 0xbc0000
 af0:	63652f6b 	cmnvs	r5, #428	; 0x1ac
 af4:	7370696c 	cmnvc	r0, #1769472	; 0x1b0000
 af8:	72705f65 	rsbsvc	r5, r0, #404	; 0x194
 afc:	63656a6f 	cmnvs	r5, #454656	; 0x6f000
 b00:	6c2f7374 	stcvs	3, cr7, [pc], #-464	; 0xfffffe30
 b04:	69656675 	stmdbvs	r5!, {r0, r2, r4, r5, r6, r9, sl, sp, lr}^
 b08:	68746f2f 	ldmdavs	r4!, {r0, r1, r2, r3, r5, r8, r9, sl, fp, sp, lr}^
 b0c:	312f7265 	teqcc	pc, r5, ror #4
 b10:	74732e37 	ldrbtvc	r2, [r3], #-3639	; 0xe37
 b14:	2f6f6964 	svccs	0x006f6964
 b18:	75626564 	strbvc	r6, [r2, #-1380]!	; 0x564
 b1c:	6e692f67 	cdpvs	15, 6, cr2, cr9, cr7, {3}
 b20:	64756c63 	ldrbtvs	r6, [r5], #-3171	; 0xc63
 b24:	63000065 	movwvs	r0, #101	; 0x65
 b28:	65707974 	ldrbvs	r7, [r0, #-2420]!	; 0x974
 b2c:	0100682e 	tsteq	r0, lr, lsr #16
 b30:	74630000 	strbtvc	r0, [r3]
 b34:	2e657079 	mcrcs	0, 3, r7, cr5, cr9, {3}
 b38:	00000063 	andeq	r0, r0, r3, rrx
	...

Disassembly of section .debug_loc:

00000000 <.debug_loc>:
       0:	00000000 	andeq	r0, r0, r0
       4:	00000008 	andeq	r0, r0, r8
       8:	007d0002 	rsbseq	r0, sp, r2
       c:	00000008 	andeq	r0, r0, r8
      10:	0000005c 	andeq	r0, r0, ip, asr r0
      14:	087d0002 	ldmdaeq	sp!, {r1}^
	...
      24:	0000001c 	andeq	r0, r0, ip, lsl r0
      28:	1c500001 	mrrcne	0, 0, r0, r0, cr1
      2c:	5c000000 	stcpl	0, cr0, [r0], {0}
      30:	01000000 	tsteq	r0, r0
      34:	00005400 	andeq	r5, r0, r0, lsl #8
      38:	00000000 	andeq	r0, r0, r0
      3c:	005c0000 	subseq	r0, ip, r0
      40:	00600000 	rsbeq	r0, r0, r0
      44:	00020000 	andeq	r0, r2, r0
      48:	0060007d 	rsbeq	r0, r0, sp, ror r0
      4c:	00880000 	addeq	r0, r8, r0
      50:	00020000 	andeq	r0, r2, r0
      54:	0000087d 	andeq	r0, r0, sp, ror r8
      58:	00000000 	andeq	r0, r0, r0
      5c:	005c0000 	subseq	r0, ip, r0
      60:	00680000 	rsbeq	r0, r8, r0
      64:	00010000 	andeq	r0, r1, r0
      68:	00006850 	andeq	r6, r0, r0, asr r8
      6c:	00007000 	andeq	r7, r0, r0
      70:	54000100 	strpl	r0, [r0], #-256	; 0x100
	...
      7c:	00000088 	andeq	r0, r0, r8, lsl #1
      80:	0000008c 	andeq	r0, r0, ip, lsl #1
      84:	007d0002 	rsbseq	r0, sp, r2
      88:	0000008c 	andeq	r0, r0, ip, lsl #1
      8c:	000000c0 	andeq	r0, r0, r0, asr #1
      90:	087d0002 	ldmdaeq	sp!, {r1}^
	...
      9c:	000000c0 	andeq	r0, r0, r0, asr #1
      a0:	000000c4 	andeq	r0, r0, r4, asr #1
      a4:	007d0002 	rsbseq	r0, sp, r2
      a8:	000000c4 	andeq	r0, r0, r4, asr #1
      ac:	000000cc 	andeq	r0, r0, ip, asr #1
      b0:	0c7d0002 	ldcleq	0, cr0, [sp], #-8
      b4:	000000cc 	andeq	r0, r0, ip, asr #1
      b8:	00000134 	andeq	r0, r0, r4, lsr r1
      bc:	187d0002 	ldmdane	sp!, {r1}^
	...
      cc:	0000000c 	andeq	r0, r0, ip
      d0:	007d0002 	rsbseq	r0, sp, r2
      d4:	0000000c 	andeq	r0, r0, ip
      d8:	0000002c 	andeq	r0, r0, ip, lsr #32
      dc:	1c7d0002 	ldclne	0, cr0, [sp], #-8
      e0:	0000002c 	andeq	r0, r0, ip, lsr #32
      e4:	0000018c 	andeq	r0, r0, ip, lsl #3
      e8:	287d0002 	ldmdacs	sp!, {r1}^
	...
      f4:	00000030 	andeq	r0, r0, r0, lsr r0
      f8:	00000080 	andeq	r0, r0, r0, lsl #1
      fc:	57910002 	ldrpl	r0, [r1, r2]
     100:	00000080 	andeq	r0, r0, r0, lsl #1
     104:	000000bc 	strheq	r0, [r0], -ip
     108:	38510001 	ldmdacc	r1, {r0}^
     10c:	3c000001 	stccc	0, cr0, [r0], {1}
     110:	01000001 	tsteq	r0, r1
     114:	00005100 	andeq	r5, r0, r0, lsl #2
     118:	00000000 	andeq	r0, r0, r0
     11c:	00900000 	addseq	r0, r0, r0
     120:	00b80000 	adcseq	r0, r8, r0
     124:	00020000 	andeq	r0, r2, r0
     128:	01189f30 	tsteq	r8, r0, lsr pc
     12c:	01380000 	teqeq	r8, r0
     130:	00010000 	andeq	r0, r1, r0
     134:	00017854 	andeq	r7, r1, r4, asr r8
     138:	00018c00 	andeq	r8, r1, r0, lsl #24
     13c:	53000100 	movwpl	r0, #256	; 0x100
	...
     148:	00000090 	muleq	r0, r0, r0
     14c:	000000b8 	strheq	r0, [r0], -r8
     150:	000c0006 	andeq	r0, ip, r6
     154:	9f33f800 	svcls	0x0033f800
     158:	00000118 	andeq	r0, r0, r8, lsl r1
     15c:	00000134 	andeq	r0, r0, r4, lsr r1
     160:	00700006 	rsbseq	r0, r0, r6
     164:	9f22007a 	svcls	0x0022007a
     168:	00000134 	andeq	r0, r0, r4, lsr r1
     16c:	00000138 	andeq	r0, r0, r8, lsr r1
     170:	78500001 	ldmdavc	r0, {r0}^
     174:	7c000001 	stcvc	0, cr0, [r0], {1}
     178:	06000001 	streq	r0, [r0], -r1
     17c:	7a007000 	bvc	1c184 <TEXT_BASE-0x33f63e7c>
     180:	009f2200 	addseq	r2, pc, r0, lsl #4
     184:	00000000 	andeq	r0, r0, r0
     188:	b4000000 	strlt	r0, [r0]
     18c:	b8000000 	stmdalt	r0, {}
     190:	02000000 	andeq	r0, r0, #0
     194:	b80c7200 	stmdalt	ip, {r9, ip, sp, lr}
     198:	c0000000 	andgt	r0, r0, r0
     19c:	01000000 	tsteq	r0, r0
     1a0:	00c05300 	sbceq	r5, r0, r0, lsl #6
     1a4:	01180000 	tsteq	r8, r0
     1a8:	00010000 	andeq	r0, r1, r0
     1ac:	00011854 	andeq	r1, r1, r4, asr r8
     1b0:	00013400 	andeq	r3, r1, r0, lsl #8
     1b4:	74000300 	strvc	r0, [r0], #-768	; 0x300
     1b8:	01349f7f 	teqeq	r4, pc, ror pc
     1bc:	01380000 	teqeq	r8, r0
     1c0:	00010000 	andeq	r0, r1, r0
     1c4:	00013854 	andeq	r3, r1, r4, asr r8
     1c8:	00014000 	andeq	r4, r1, r0
     1cc:	53000100 	movwpl	r0, #256	; 0x100
     1d0:	00000140 	andeq	r0, r0, r0, asr #2
     1d4:	00000178 	andeq	r0, r0, r8, ror r1
     1d8:	78540001 	ldmdavc	r4, {r0}^
     1dc:	8c000001 	stchi	0, cr0, [r0], {1}
     1e0:	03000001 	movweq	r0, #1
     1e4:	9f7f7300 	svcls	0x007f7300
	...
     1f0:	000000b4 	strheq	r0, [r0], -r4
     1f4:	00000134 	andeq	r0, r0, r4, lsr r1
     1f8:	34500001 	ldrbcc	r0, [r0], #-1
     1fc:	7c000001 	stcvc	0, cr0, [r0], {1}
     200:	01000001 	tsteq	r0, r1
     204:	00005000 	andeq	r5, r0, r0
     208:	00000000 	andeq	r0, r0, r0
     20c:	01080000 	tsteq	r8, r0
     210:	01140000 	tsteq	r4, r0
     214:	00010000 	andeq	r0, r1, r0
     218:	00000053 	andeq	r0, r0, r3, asr r0
     21c:	00000000 	andeq	r0, r0, r0
     220:	0000b400 	andeq	fp, r0, r0, lsl #8
     224:	0000ec00 	andeq	lr, r0, r0, lsl #24
     228:	0a000400 	beq	1230 <TEXT_BASE-0x33f7edd0>
     22c:	349f0200 	ldrcc	r0, [pc], #512	; 234 <TEXT_BASE-0x33f7fdcc>
     230:	38000001 	stmdacc	r0, {r0}
     234:	04000001 	streq	r0, [r0], #-1
     238:	02000a00 	andeq	r0, r0, #0
     23c:	0001389f 	muleq	r1, pc, r8
     240:	00017800 	andeq	r7, r1, r0, lsl #16
     244:	0a000400 	beq	124c <TEXT_BASE-0x33f7edb4>
     248:	009f0800 	addseq	r0, pc, r0, lsl #16
	...
     254:	04000000 	streq	r0, [r0]
     258:	02000000 	andeq	r0, r0, #0
     25c:	04007d00 	streq	r7, [r0], #-3328	; 0xd00
     260:	08000000 	stmdaeq	r0, {}
     264:	02000000 	andeq	r0, r0, #0
     268:	08107d00 	ldmdaeq	r0, {r8, sl, fp, ip, sp, lr}
     26c:	58000000 	stmdapl	r0, {}
     270:	02000000 	andeq	r0, r0, #0
     274:	00207d00 	eoreq	r7, r0, r0, lsl #26
     278:	00000000 	andeq	r0, r0, r0
     27c:	20000000 	andcs	r0, r0, r0
     280:	28000000 	stmdacs	r0, {}
     284:	02000000 	andeq	r0, r0, #0
     288:	289f3000 	ldmcs	pc, {ip, sp}
     28c:	34000000 	strcc	r0, [r0]
     290:	01000000 	tsteq	r0, r0
     294:	00345400 	eorseq	r5, r4, r0, lsl #8
     298:	00580000 	subseq	r0, r8, r0
     29c:	00010000 	andeq	r0, r1, r0
     2a0:	00000054 	andeq	r0, r0, r4, asr r0
     2a4:	00000000 	andeq	r0, r0, r0
     2a8:	00002000 	andeq	r2, r0, r0
     2ac:	00002800 	andeq	r2, r0, r0, lsl #16
     2b0:	50000100 	andpl	r0, r0, r0, lsl #2
     2b4:	00000028 	andeq	r0, r0, r8, lsr #32
     2b8:	00000058 	andeq	r0, r0, r8, asr r0
     2bc:	00560001 	subseq	r0, r6, r1
     2c0:	00000000 	andeq	r0, r0, r0
     2c4:	58000000 	stmdapl	r0, {}
     2c8:	5c000000 	stcpl	0, cr0, [r0], {0}
     2cc:	02000000 	andeq	r0, r0, #0
     2d0:	5c007d00 	stcpl	13, cr7, [r0], {0}
     2d4:	60000000 	andvs	r0, r0, r0
     2d8:	02000000 	andeq	r0, r0, #0
     2dc:	60107d00 	andsvs	r7, r0, r0, lsl #26
     2e0:	c0000000 	andgt	r0, r0, r0
     2e4:	02000000 	andeq	r0, r0, #0
     2e8:	00207d00 	eoreq	r7, r0, r0, lsl #26
     2ec:	00000000 	andeq	r0, r0, r0
     2f0:	58000000 	stmdapl	r0, {}
     2f4:	6c000000 	stcvs	0, cr0, [r0], {0}
     2f8:	02000000 	andeq	r0, r0, #0
     2fc:	6c9f3000 	ldcvs	0, cr3, [pc], {0}
     300:	74000000 	strvc	r0, [r0]
     304:	01000000 	tsteq	r0, r0
     308:	00745500 	rsbseq	r5, r4, r0, lsl #10
     30c:	00ac0000 	adceq	r0, ip, r0
     310:	00010000 	andeq	r0, r1, r0
     314:	00000055 	andeq	r0, r0, r5, asr r0
     318:	00000000 	andeq	r0, r0, r0
     31c:	00006c00 	andeq	r6, r0, r0, lsl #24
     320:	00007400 	andeq	r7, r0, r0, lsl #8
     324:	54000100 	strpl	r0, [r0], #-256	; 0x100
     328:	0000007c 	andeq	r0, r0, ip, ror r0
     32c:	0000007f 	andeq	r0, r0, pc, ror r0
     330:	7f500001 	svcvc	0x00500001
     334:	c0000000 	andgt	r0, r0, r0
     338:	01000000 	tsteq	r0, r0
     33c:	00005400 	andeq	r5, r0, r0, lsl #8
     340:	00000000 	andeq	r0, r0, r0
     344:	00a40000 	adceq	r0, r4, r0
     348:	00ab0000 	adceq	r0, fp, r0
     34c:	00010000 	andeq	r0, r1, r0
     350:	0000ab52 	andeq	sl, r0, r2, asr fp
     354:	0000c000 	andeq	ip, r0, r0
     358:	91000300 	tstls	r0, r0, lsl #6
     35c:	00009f4c 	andeq	r9, r0, ip, asr #30
	...
     368:	00080000 	andeq	r0, r8, r0
     36c:	00020000 	andeq	r0, r2, r0
     370:	0008007d 	andeq	r0, r8, sp, ror r0
     374:	008c0000 	addeq	r0, ip, r0
     378:	00020000 	andeq	r0, r2, r0
     37c:	0000107d 	andeq	r1, r0, sp, ror r0
	...
     388:	000c0000 	andeq	r0, ip, r0
     38c:	00010000 	andeq	r0, r1, r0
     390:	00000050 	andeq	r0, r0, r0, asr r0
	...
     39c:	00001800 	andeq	r1, r0, r0, lsl #16
     3a0:	51000100 	tstpl	r0, r0, lsl #2
	...
     3b0:	00000018 	andeq	r0, r0, r8, lsl r0
     3b4:	00520001 	subseq	r0, r2, r1
	...
     3c0:	18000000 	stmdane	r0, {}
     3c4:	02000000 	andeq	r0, r0, #0
     3c8:	1c9f3000 	ldcne	0, cr3, [pc], {0}
     3cc:	50000000 	andpl	r0, r0, r0
     3d0:	01000000 	tsteq	r0, r0
     3d4:	00645300 	rsbeq	r5, r4, r0, lsl #6
     3d8:	006c0000 	rsbeq	r0, ip, r0
     3dc:	00010000 	andeq	r0, r1, r0
     3e0:	00007853 	andeq	r7, r0, r3, asr r8
     3e4:	00008c00 	andeq	r8, r0, r0, lsl #24
     3e8:	53000100 	movwpl	r0, #256	; 0x100
	...
     3f8:	00000018 	andeq	r0, r0, r8, lsl r0
     3fc:	9f300002 	svcls	0x00300002
     400:	00000020 	andeq	r0, r0, r0, lsr #32
     404:	0000005c 	andeq	r0, r0, ip, asr r0
     408:	645c0001 	ldrbvs	r0, [ip], #-1
     40c:	6c000000 	stcvs	0, cr0, [r0], {0}
     410:	01000000 	tsteq	r0, r0
     414:	00785c00 	rsbseq	r5, r8, r0, lsl #24
     418:	008c0000 	addeq	r0, ip, r0
     41c:	00010000 	andeq	r0, r1, r0
     420:	0000005c 	andeq	r0, r0, ip, asr r0
     424:	00000000 	andeq	r0, r0, r0
     428:	00003c00 	andeq	r3, r0, r0, lsl #24
     42c:	00005000 	andeq	r5, r0, r0
     430:	53000100 	movwpl	r0, #256	; 0x100
     434:	00000050 	andeq	r0, r0, r0, asr r0
     438:	00000064 	andeq	r0, r0, r4, rrx
     43c:	00530001 	subseq	r0, r3, r1
     440:	00000000 	andeq	r0, r0, r0
     444:	50000000 	andpl	r0, r0, r0
     448:	5c000000 	stcpl	0, cr0, [r0], {0}
     44c:	01000000 	tsteq	r0, r0
     450:	005c5c00 	subseq	r5, ip, r0, lsl #24
     454:	00640000 	rsbeq	r0, r4, r0
     458:	00010000 	andeq	r0, r1, r0
     45c:	0000005c 	andeq	r0, r0, ip, asr r0
     460:	00000000 	andeq	r0, r0, r0
     464:	00008c00 	andeq	r8, r0, r0, lsl #24
     468:	00009000 	andeq	r9, r0, r0
     46c:	50000100 	andpl	r0, r0, r0, lsl #2
	...
     478:	0000008c 	andeq	r0, r0, ip, lsl #1
     47c:	00000090 	muleq	r0, r0, r0
     480:	00510001 	subseq	r0, r1, r1
     484:	00000000 	andeq	r0, r0, r0
     488:	a8000000 	stmdage	r0, {}
     48c:	ac000000 	stcge	0, cr0, [r0], {0}
     490:	01000000 	tsteq	r0, r0
     494:	00005000 	andeq	r5, r0, r0
     498:	00000000 	andeq	r0, r0, r0
     49c:	00a80000 	adceq	r0, r8, r0
     4a0:	00ac0000 	adceq	r0, ip, r0
     4a4:	00010000 	andeq	r0, r1, r0
     4a8:	00000051 	andeq	r0, r0, r1, asr r0
     4ac:	00000000 	andeq	r0, r0, r0
     4b0:	0000a800 	andeq	sl, r0, r0, lsl #16
     4b4:	0000ac00 	andeq	sl, r0, r0, lsl #24
     4b8:	52000100 	andpl	r0, r0, #0
	...
     4c4:	000000d0 	ldrdeq	r0, [r0], -r0
     4c8:	000000e4 	andeq	r0, r0, r4, ror #1
     4cc:	e8500001 	ldmda	r0, {r0}^
     4d0:	ec000000 	stc	0, cr0, [r0], {0}
     4d4:	01000000 	tsteq	r0, r0
     4d8:	00ec5300 	rsceq	r5, ip, r0, lsl #6
     4dc:	00f40000 	rscseq	r0, r4, r0
     4e0:	00010000 	andeq	r0, r1, r0
     4e4:	0000005c 	andeq	r0, r0, ip, asr r0
     4e8:	00000000 	andeq	r0, r0, r0
     4ec:	0000d000 	andeq	sp, r0, r0
     4f0:	0000f800 	andeq	pc, r0, r0, lsl #16
     4f4:	51000100 	tstpl	r0, r0, lsl #2
	...
     500:	00000110 	andeq	r0, r0, r0, lsl r1
     504:	00000118 	andeq	r0, r0, r8, lsl r1
     508:	007d0002 	rsbseq	r0, sp, r2
     50c:	00000118 	andeq	r0, r0, r8, lsl r1
     510:	00000170 	andeq	r0, r0, r0, ror r1
     514:	047d0002 	ldrbteq	r0, [sp], #-2
	...
     520:	00000110 	andeq	r0, r0, r0, lsl r1
     524:	00000130 	andeq	r0, r0, r0, lsr r1
     528:	34500001 	ldrbcc	r0, [r0], #-1
     52c:	38000001 	stmdacc	r0, {r0}
     530:	01000001 	tsteq	r0, r1
     534:	01385300 	teqeq	r8, r0, lsl #6
     538:	01400000 	cmpeq	r0, r0
     53c:	00010000 	andeq	r0, r1, r0
     540:	00000054 	andeq	r0, r0, r4, asr r0
     544:	00000000 	andeq	r0, r0, r0
     548:	00011000 	andeq	r1, r1, r0
     54c:	00014400 	andeq	r4, r1, r0, lsl #8
     550:	51000100 	tstpl	r0, r0, lsl #2
	...
     55c:	00000110 	andeq	r0, r0, r0, lsl r1
     560:	00000144 	andeq	r0, r0, r4, asr #2
     564:	00520001 	subseq	r0, r2, r1
     568:	00000000 	andeq	r0, r0, r0
     56c:	70000000 	andvc	r0, r0, r0
     570:	78000001 	stmdavc	r0, {r0}
     574:	01000001 	tsteq	r0, r1
     578:	00005000 	andeq	r5, r0, r0
     57c:	00000000 	andeq	r0, r0, r0
     580:	01700000 	cmneq	r0, r0
     584:	01780000 	cmneq	r8, r0
     588:	00010000 	andeq	r0, r1, r0
     58c:	00000051 	andeq	r0, r0, r1, asr r0
     590:	00000000 	andeq	r0, r0, r0
     594:	00017800 	andeq	r7, r1, r0, lsl #16
     598:	00018000 	andeq	r8, r1, r0
     59c:	5c000100 	stfpls	f0, [r0], {0}
     5a0:	00000194 	muleq	r0, r4, r1
     5a4:	000001ac 	andeq	r0, r0, ip, lsr #3
     5a8:	005c0001 	subseq	r0, ip, r1
     5ac:	00000000 	andeq	r0, r0, r0
     5b0:	ac000000 	stcge	0, cr0, [r0], {0}
     5b4:	cc000001 	stcgt	0, cr0, [r0], {1}
     5b8:	01000001 	tsteq	r0, r1
     5bc:	01cc5000 	biceq	r5, ip, r0
     5c0:	01d40000 	bicseq	r0, r4, r0
     5c4:	00030000 	andeq	r0, r3, r0
     5c8:	009f0170 	addseq	r0, pc, r0, ror r1
     5cc:	00000000 	andeq	r0, r0, r0
     5d0:	ac000000 	stcge	0, cr0, [r0], {0}
     5d4:	c4000001 	strgt	r0, [r0], #-1
     5d8:	01000001 	tsteq	r0, r1
     5dc:	01c45100 	biceq	r5, r4, r0, lsl #2
     5e0:	01dc0000 	bicseq	r0, ip, r0
     5e4:	00030000 	andeq	r0, r3, r0
     5e8:	009f0171 	addseq	r0, pc, r1, ror r1
     5ec:	00000000 	andeq	r0, r0, r0
     5f0:	ac000000 	stcge	0, cr0, [r0], {0}
     5f4:	fc000001 	stc2	0, cr0, [r0], {1}
     5f8:	01000001 	tsteq	r0, r1
     5fc:	01fc5200 	mvnseq	r5, r0, lsl #4
     600:	02000000 	andeq	r0, r0, #0
     604:	00030000 	andeq	r0, r3, r0
     608:	009f7f72 	addseq	r7, pc, r2, ror pc
     60c:	1c000002 	stcne	0, cr0, [r0], {2}
     610:	01000002 	tsteq	r0, r2
     614:	00005200 	andeq	r5, r0, r0, lsl #4
     618:	00000000 	andeq	r0, r0, r0
     61c:	01ac0000 	undefined instruction 0x01ac0000
     620:	01c40000 	biceq	r0, r4, r0
     624:	00020000 	andeq	r0, r2, r0
     628:	01c49f30 	biceq	r9, r4, r0, lsr pc
     62c:	01dc0000 	bicseq	r0, ip, r0
     630:	00010000 	andeq	r0, r1, r0
     634:	0001dc5c 	andeq	sp, r1, ip, asr ip
     638:	0001ec00 	andeq	lr, r1, r0, lsl #24
     63c:	30000200 	andcc	r0, r0, r0, lsl #4
     640:	0001ec9f 	muleq	r1, pc, ip
     644:	0001fc00 	andeq	pc, r1, r0, lsl #24
     648:	5c000100 	stfpls	f0, [r0], {0}
     64c:	000001fc 	strdeq	r0, [r0], -ip
     650:	0000020c 	andeq	r0, r0, ip, lsl #4
     654:	9f300002 	svcls	0x00300002
     658:	00000214 	andeq	r0, r0, r4, lsl r2
     65c:	00000218 	andeq	r0, r0, r8, lsl r2
     660:	005c0001 	subseq	r0, ip, r1
     664:	00000000 	andeq	r0, r0, r0
     668:	1c000000 	stcne	0, cr0, [r0], {0}
     66c:	4c000002 	stcmi	0, cr0, [r0], {2}
     670:	01000002 	tsteq	r0, r2
     674:	024c5000 	subeq	r5, ip, #0
     678:	02540000 	subseq	r0, r4, #0
     67c:	00010000 	andeq	r0, r1, r0
     680:	00025452 	andeq	r5, r2, r2, asr r4
     684:	00026000 	andeq	r6, r2, r0
     688:	50000100 	andpl	r0, r0, r0, lsl #2
     68c:	00000260 	andeq	r0, r0, r0, ror #4
     690:	00000264 	andeq	r0, r0, r4, ror #4
     694:	7f720003 	svcvc	0x00720003
     698:	0002649f 	muleq	r2, pc, r4
     69c:	00026800 	andeq	r6, r2, r0, lsl #16
     6a0:	50000100 	andpl	r0, r0, r0, lsl #2
	...
     6ac:	0000021c 	andeq	r0, r0, ip, lsl r2
     6b0:	00000224 	andeq	r0, r0, r4, lsr #4
     6b4:	00510001 	subseq	r0, r1, r1
     6b8:	00000000 	andeq	r0, r0, r0
     6bc:	6c000000 	stcvs	0, cr0, [r0], {0}
     6c0:	7c000002 	stcvc	0, cr0, [r0], {2}
     6c4:	01000002 	tsteq	r0, r2
     6c8:	02805000 	addeq	r5, r0, #0
     6cc:	02c00000 	sbceq	r0, r0, #0
     6d0:	00010000 	andeq	r0, r1, r0
     6d4:	00000053 	andeq	r0, r0, r3, asr r0
     6d8:	00000000 	andeq	r0, r0, r0
     6dc:	00026c00 	andeq	r6, r2, r0, lsl #24
     6e0:	00029800 	andeq	r9, r2, r0, lsl #16
     6e4:	51000100 	tstpl	r0, r0, lsl #2
	...
     6f0:	00000294 	muleq	r0, r4, r2
     6f4:	0000029c 	muleq	r0, ip, r2
     6f8:	00730006 	rsbseq	r0, r3, r6
     6fc:	9f220072 	svcls	0x00220072
     700:	000002a4 	andeq	r0, r0, r4, lsr #5
     704:	000002ac 	andeq	r0, r0, ip, lsr #5
     708:	ac520001 	mrrcge	0, 0, r0, r2, cr1
     70c:	b0000002 	andlt	r0, r0, r2
     710:	01000002 	tsteq	r0, r2
     714:	00005000 	andeq	r5, r0, r0
     718:	00000000 	andeq	r0, r0, r0
     71c:	02740000 	rsbseq	r0, r4, #0
     720:	02800000 	addeq	r0, r0, #0
     724:	00010000 	andeq	r0, r1, r0
     728:	00028050 	andeq	r8, r2, r0, asr r0
     72c:	0002c000 	andeq	ip, r2, r0
     730:	53000100 	movwpl	r0, #256	; 0x100
	...
     73c:	00000274 	andeq	r0, r0, r4, ror r2
     740:	00000280 	andeq	r0, r0, r0, lsl #5
     744:	84500001 	ldrbhi	r0, [r0], #-1
     748:	88000002 	stmdahi	r0, {r1}
     74c:	01000002 	tsteq	r0, r2
     750:	02885000 	addeq	r5, r8, #0
     754:	02940000 	addseq	r0, r4, #0
     758:	00010000 	andeq	r0, r1, r0
     75c:	00000052 	andeq	r0, r0, r2, asr r0
     760:	00000000 	andeq	r0, r0, r0
     764:	0002c000 	andeq	ip, r2, r0
     768:	0002e400 	andeq	lr, r2, r0, lsl #8
     76c:	50000100 	andpl	r0, r0, r0, lsl #2
     770:	000002e8 	andeq	r0, r0, r8, ror #5
     774:	000002ec 	andeq	r0, r0, ip, ror #5
     778:	00500001 	subseq	r0, r0, r1
     77c:	00000000 	andeq	r0, r0, r0
     780:	c0000000 	andgt	r0, r0, r0
     784:	d0000002 	andle	r0, r0, r2
     788:	01000002 	tsteq	r0, r2
     78c:	02d45000 	sbcseq	r5, r4, #0
     790:	02d80000 	sbcseq	r0, r8, #0
     794:	00010000 	andeq	r0, r1, r0
     798:	0002d853 	andeq	sp, r2, r3, asr r8
     79c:	0002e800 	andeq	lr, r2, r0, lsl #16
     7a0:	51000100 	tstpl	r0, r0, lsl #2
     7a4:	000002e8 	andeq	r0, r0, r8, ror #5
     7a8:	000002ec 	andeq	r0, r0, ip, ror #5
     7ac:	00500001 	subseq	r0, r0, r1
     7b0:	00000000 	andeq	r0, r0, r0
     7b4:	f0000000 	undefined instruction 0xf0000000
     7b8:	f8000002 	undefined instruction 0xf8000002
     7bc:	01000002 	tsteq	r0, r2
     7c0:	00005000 	andeq	r5, r0, r0
     7c4:	00000000 	andeq	r0, r0, r0
     7c8:	02f00000 	rscseq	r0, r0, #0
     7cc:	02f40000 	rscseq	r0, r4, #0
     7d0:	00010000 	andeq	r0, r1, r0
     7d4:	00000051 	andeq	r0, r0, r1, asr r0
     7d8:	00000000 	andeq	r0, r0, r0
     7dc:	0002f400 	andeq	pc, r2, r0, lsl #8
     7e0:	0002f800 	andeq	pc, r2, r0, lsl #16
     7e4:	50000100 	andpl	r0, r0, r0, lsl #2
     7e8:	00000314 	andeq	r0, r0, r4, lsl r3
     7ec:	00000318 	andeq	r0, r0, r8, lsl r3
     7f0:	18530001 	ldmdane	r3, {r0}^
     7f4:	24000003 	strcs	r0, [r0], #-3
     7f8:	01000003 	tsteq	r0, r3
     7fc:	032c5c00 	teqeq	ip, #0
     800:	03380000 	teqeq	r8, #0
     804:	00010000 	andeq	r0, r1, r0
     808:	00033853 	andeq	r3, r3, r3, asr r8
     80c:	00034000 	andeq	r4, r3, r0
     810:	5c000100 	stfpls	f0, [r0], {0}
	...
     81c:	00000348 	andeq	r0, r0, r8, asr #6
     820:	0000034c 	andeq	r0, r0, ip, asr #6
     824:	007d0002 	rsbseq	r0, sp, r2
     828:	0000034c 	andeq	r0, r0, ip, asr #6
     82c:	000003b4 	undefined instruction 0x000003b4
     830:	087d0002 	ldmdaeq	sp!, {r1}^
	...
     83c:	00000348 	andeq	r0, r0, r8, asr #6
     840:	00000358 	andeq	r0, r0, r8, asr r3
     844:	00500001 	subseq	r0, r0, r1
     848:	00000000 	andeq	r0, r0, r0
     84c:	48000000 	stmdami	r0, {}
     850:	70000003 	andvc	r0, r0, r3
     854:	01000003 	tsteq	r0, r3
     858:	03745100 	cmneq	r4, #0
     85c:	03b40000 	undefined instruction 0x03b40000
     860:	00010000 	andeq	r0, r1, r0
     864:	00000051 	andeq	r0, r0, r1, asr r0
     868:	00000000 	andeq	r0, r0, r0
     86c:	00034800 	andeq	r4, r3, r0, lsl #16
     870:	00035800 	andeq	r5, r3, r0, lsl #16
     874:	50000100 	andpl	r0, r0, r0, lsl #2
	...
     880:	00000364 	andeq	r0, r0, r4, ror #6
     884:	00000374 	andeq	r0, r0, r4, ror r3
     888:	00510001 	subseq	r0, r1, r1
     88c:	00000000 	andeq	r0, r0, r0
     890:	48000000 	stmdami	r0, {}
     894:	74000003 	strvc	r0, [r0], #-3
     898:	02000003 	andeq	r0, r0, #3
     89c:	a89f3000 	ldmge	pc, {ip, sp}
     8a0:	b4000003 	strlt	r0, [r0], #-3
     8a4:	01000003 	tsteq	r0, r3
     8a8:	00005000 	andeq	r5, r0, r0
     8ac:	00000000 	andeq	r0, r0, r0
     8b0:	03b40000 	undefined instruction 0x03b40000
     8b4:	03b80000 	undefined instruction 0x03b80000
     8b8:	00020000 	andeq	r0, r2, r0
     8bc:	03b8007d 	undefined instruction 0x03b8007d
     8c0:	04140000 	ldreq	r0, [r4]
     8c4:	00020000 	andeq	r0, r2, r0
     8c8:	0000087d 	andeq	r0, r0, sp, ror r8
     8cc:	00000000 	andeq	r0, r0, r0
     8d0:	03b40000 	undefined instruction 0x03b40000
     8d4:	03c40000 	biceq	r0, r4, #0
     8d8:	00010000 	andeq	r0, r1, r0
     8dc:	00000050 	andeq	r0, r0, r0, asr r0
     8e0:	00000000 	andeq	r0, r0, r0
     8e4:	0003b400 	andeq	fp, r3, r0, lsl #8
     8e8:	0003cc00 	andeq	ip, r3, r0, lsl #24
     8ec:	50000100 	andpl	r0, r0, r0, lsl #2
	...
     8f8:	000003d4 	ldrdeq	r0, [r0], -r4
     8fc:	000003e8 	andeq	r0, r0, r8, ror #7
     900:	00510001 	subseq	r0, r1, r1
     904:	00000000 	andeq	r0, r0, r0
     908:	14000000 	strne	r0, [r0]
     90c:	18000004 	stmdane	r0, {r2}
     910:	02000004 	andeq	r0, r0, #4
     914:	18007d00 	stmdane	r0, {r8, sl, fp, ip, sp, lr}
     918:	d4000004 	strle	r0, [r0], #-4
     91c:	02000004 	andeq	r0, r0, #4
     920:	00107d00 	andseq	r7, r0, r0, lsl #26
     924:	00000000 	andeq	r0, r0, r0
     928:	14000000 	strne	r0, [r0]
     92c:	2c000004 	stccs	0, cr0, [r0], {4}
     930:	01000004 	tsteq	r0, r4
     934:	04b85000 	ldrteq	r5, [r8]
     938:	04cc0000 	strbeq	r0, [ip]
     93c:	00010000 	andeq	r0, r1, r0
     940:	00000050 	andeq	r0, r0, r0, asr r0
     944:	00000000 	andeq	r0, r0, r0
     948:	00041400 	andeq	r1, r4, r0, lsl #8
     94c:	00043000 	andeq	r3, r4, r0
     950:	51000100 	tstpl	r0, r0, lsl #2
     954:	00000430 	andeq	r0, r0, r0, lsr r4
     958:	000004d4 	ldrdeq	r0, [r0], -r4
     95c:	00550001 	subseq	r0, r5, r1
     960:	00000000 	andeq	r0, r0, r0
     964:	34000000 	strcc	r0, [r0]
     968:	38000004 	stmdacc	r0, {r2}
     96c:	01000004 	tsteq	r0, r4
     970:	04c05400 	strbeq	r5, [r0], #1024	; 0x400
     974:	04d40000 	ldrbeq	r0, [r4]
     978:	00050000 	andeq	r0, r5, r0
     97c:	f82bd003 	undefined instruction 0xf82bd003
     980:	00000033 	andeq	r0, r0, r3, lsr r0
     984:	00000000 	andeq	r0, r0, r0
     988:	00048c00 	andeq	r8, r4, r0, lsl #24
     98c:	00049000 	andeq	r9, r4, r0
     990:	50000100 	andpl	r0, r0, r0, lsl #2
     994:	000004b0 	undefined instruction 0x000004b0
     998:	000004b8 	undefined instruction 0x000004b8
     99c:	00500001 	subseq	r0, r0, r1
     9a0:	00000000 	andeq	r0, r0, r0
     9a4:	50000000 	andpl	r0, r0, r0
     9a8:	68000004 	stmdavs	r0, {r2}
     9ac:	01000004 	tsteq	r0, r4
     9b0:	00005500 	andeq	r5, r0, r0, lsl #10
     9b4:	00000000 	andeq	r0, r0, r0
     9b8:	04d40000 	ldrbeq	r0, [r4]
     9bc:	04dc0000 	ldrbeq	r0, [ip]
     9c0:	00020000 	andeq	r0, r2, r0
     9c4:	04dc007d 	ldrbeq	r0, [ip], #125	; 0x7d
     9c8:	05580000 	ldrbeq	r0, [r8]
     9cc:	00020000 	andeq	r0, r2, r0
     9d0:	00000c7d 	andeq	r0, r0, sp, ror ip
     9d4:	00000000 	andeq	r0, r0, r0
     9d8:	04d40000 	ldrbeq	r0, [r4]
     9dc:	053c0000 	ldreq	r0, [ip]!
     9e0:	00010000 	andeq	r0, r1, r0
     9e4:	00054450 	andeq	r4, r5, r0, asr r4
     9e8:	00055800 	andeq	r5, r5, r0, lsl #16
     9ec:	50000100 	andpl	r0, r0, r0, lsl #2
	...
     9f8:	000004d8 	ldrdeq	r0, [r0], -r8
     9fc:	0000053c 	andeq	r0, r0, ip, lsr r5
     a00:	00700002 	rsbseq	r0, r0, r2
     a04:	0000053c 	andeq	r0, r0, ip, lsr r5
     a08:	00000558 	andeq	r0, r0, r8, asr r5
     a0c:	00530001 	subseq	r0, r3, r1
     a10:	00000000 	andeq	r0, r0, r0
     a14:	34000000 	strcc	r0, [r0]
     a18:	38000005 	stmdacc	r0, {r0, r2}
     a1c:	01000005 	tsteq	r0, r5
     a20:	05505400 	ldrbeq	r5, [r0, #-1024]	; 0x400
     a24:	05580000 	ldrbeq	r0, [r8]
     a28:	00010000 	andeq	r0, r1, r0
     a2c:	00000055 	andeq	r0, r0, r5, asr r0
     a30:	00000000 	andeq	r0, r0, r0
     a34:	0004e400 	andeq	lr, r4, r0, lsl #8
     a38:	0004f800 	andeq	pc, r4, r0, lsl #16
     a3c:	70000200 	andvc	r0, r0, r0, lsl #4
	...
     a48:	0004f800 	andeq	pc, r4, r0, lsl #16
     a4c:	00051000 	andeq	r1, r5, r0
     a50:	51000100 	tstpl	r0, r0, lsl #2
	...
     a5c:	00000558 	andeq	r0, r0, r8, asr r5
     a60:	00000560 	andeq	r0, r0, r0, ror #10
     a64:	68500001 	ldmdavs	r0, {r0}^
     a68:	7c000005 	stcvc	0, cr0, [r0], {5}
     a6c:	01000005 	tsteq	r0, r5
     a70:	00005000 	andeq	r5, r0, r0
     a74:	00000000 	andeq	r0, r0, r0
     a78:	05580000 	ldrbeq	r0, [r8]
     a7c:	05640000 	strbeq	r0, [r4]!
     a80:	00010000 	andeq	r0, r1, r0
     a84:	00000051 	andeq	r0, r0, r1, asr r0
     a88:	00000000 	andeq	r0, r0, r0
     a8c:	00055800 	andeq	r5, r5, r0, lsl #16
     a90:	00055c00 	andeq	r5, r5, r0, lsl #24
     a94:	52000100 	andpl	r0, r0, #0
	...
     aa0:	0000055c 	andeq	r0, r0, ip, asr r5
     aa4:	00000568 	andeq	r0, r0, r8, ror #10
     aa8:	00500001 	subseq	r0, r0, r1
     aac:	00000000 	andeq	r0, r0, r0
     ab0:	7c000000 	stcvc	0, cr0, [r0], {0}
     ab4:	80000005 	andhi	r0, r0, r5
     ab8:	01000005 	tsteq	r0, r5
     abc:	00005200 	andeq	r5, r0, r0, lsl #4
     ac0:	00000000 	andeq	r0, r0, r0
     ac4:	05800000 	streq	r0, [r0]
     ac8:	05880000 	streq	r0, [r8]
     acc:	00010000 	andeq	r0, r1, r0
     ad0:	00000051 	andeq	r0, r0, r1, asr r0
     ad4:	00000000 	andeq	r0, r0, r0
     ad8:	00058000 	andeq	r8, r5, r0
     adc:	00058800 	andeq	r8, r5, r0, lsl #16
     ae0:	50000100 	andpl	r0, r0, r0, lsl #2
	...
     aec:	000005a0 	andeq	r0, r0, r0, lsr #11
     af0:	000005a4 	andeq	r0, r0, r4, lsr #11
     af4:	00520001 	subseq	r0, r2, r1
     af8:	00000000 	andeq	r0, r0, r0
     afc:	a4000000 	strge	r0, [r0]
     b00:	ac000005 	stcge	0, cr0, [r0], {5}
     b04:	01000005 	tsteq	r0, r5
     b08:	00005000 	andeq	r5, r0, r0
     b0c:	00000000 	andeq	r0, r0, r0
     b10:	05a40000 	streq	r0, [r4]!
     b14:	05ac0000 	streq	r0, [ip]!
     b18:	00010000 	andeq	r0, r1, r0
     b1c:	00000051 	andeq	r0, r0, r1, asr r0
     b20:	00000000 	andeq	r0, r0, r0
     b24:	0005c400 	andeq	ip, r5, r0, lsl #8
     b28:	0005fc00 	andeq	pc, r5, r0, lsl #24
     b2c:	51000100 	tstpl	r0, r0, lsl #2
	...
     b38:	000005c4 	andeq	r0, r0, r4, asr #11
     b3c:	000005cc 	andeq	r0, r0, ip, asr #11
     b40:	cc520001 	mrrcgt	0, 0, r0, r2, cr1
     b44:	d8000005 	stmdale	r0, {r0, r2}
     b48:	03000005 	movweq	r0, #5
     b4c:	9f7f7200 	svcls	0x007f7200
     b50:	000005f0 	strdeq	r0, [r0], -r0
     b54:	00000600 	andeq	r0, r0, r0, lsl #12
     b58:	7f720003 	svcvc	0x00720003
     b5c:	0000009f 	muleq	r0, pc, r0
     b60:	00000000 	andeq	r0, r0, r0
     b64:	0005cc00 	andeq	ip, r5, r0, lsl #24
     b68:	0005d800 	andeq	sp, r5, r0, lsl #16
     b6c:	50000100 	andpl	r0, r0, r0, lsl #2
     b70:	000005f0 	strdeq	r0, [r0], -r0
     b74:	00000600 	andeq	r0, r0, r0, lsl #12
     b78:	00700006 	rsbseq	r0, r0, r6
     b7c:	9f220072 	svcls	0x00220072
	...
     b88:	000005cc 	andeq	r0, r0, ip, asr #11
     b8c:	000005d8 	ldrdeq	r0, [r0], -r8
     b90:	f0510001 	undefined instruction 0xf0510001
     b94:	fc000005 	stc2	0, cr0, [r0], {5}
     b98:	06000005 	streq	r0, [r0], -r5
     b9c:	72007100 	andvc	r7, r0, #0
     ba0:	009f2200 	addseq	r2, pc, r0, lsl #4
     ba4:	00000000 	andeq	r0, r0, r0
     ba8:	14000000 	strne	r0, [r0]
     bac:	20000006 	andcs	r0, r0, r6
     bb0:	02000006 	andeq	r0, r0, #6
     bb4:	20007d00 	andcs	r7, r0, r0, lsl #26
     bb8:	64000006 	strvs	r0, [r0], #-6
     bbc:	02000006 	andeq	r0, r0, #6
     bc0:	00047d00 	andeq	r7, r4, r0, lsl #26
     bc4:	00000000 	andeq	r0, r0, r0
     bc8:	14000000 	strne	r0, [r0]
     bcc:	24000006 	strcs	r0, [r0], #-6
     bd0:	01000006 	tsteq	r0, r6
     bd4:	00005000 	andeq	r5, r0, r0
     bd8:	00000000 	andeq	r0, r0, r0
     bdc:	06140000 	ldreq	r0, [r4], -r0
     be0:	063c0000 	ldrteq	r0, [ip], -r0
     be4:	00010000 	andeq	r0, r1, r0
     be8:	00000051 	andeq	r0, r0, r1, asr r0
     bec:	00000000 	andeq	r0, r0, r0
     bf0:	00061400 	andeq	r1, r6, r0, lsl #8
     bf4:	00061c00 	andeq	r1, r6, r0, lsl #24
     bf8:	52000100 	andpl	r0, r0, #0
     bfc:	0000063c 	andeq	r0, r0, ip, lsr r6
     c00:	0000064c 	andeq	r0, r0, ip, asr #12
     c04:	4c520001 	mrrcmi	0, 0, r0, r2, cr1
     c08:	50000006 	andpl	r0, r0, r6
     c0c:	03000006 	movweq	r0, #6
     c10:	9f7f7200 	svcls	0x007f7200
     c14:	00000650 	andeq	r0, r0, r0, asr r6
     c18:	00000654 	andeq	r0, r0, r4, asr r6
     c1c:	5c520001 	mrrcpl	0, 0, r0, r2, cr1
     c20:	64000006 	strvs	r0, [r0], #-6
     c24:	01000006 	tsteq	r0, r6
     c28:	00005200 	andeq	r5, r0, r0, lsl #4
     c2c:	00000000 	andeq	r0, r0, r0
     c30:	061c0000 	ldreq	r0, [ip], -r0
     c34:	06240000 	strteq	r0, [r4], -r0
     c38:	00010000 	andeq	r0, r1, r0
     c3c:	00062450 	andeq	r2, r6, r0, asr r4
     c40:	00063c00 	andeq	r3, r6, r0, lsl #24
     c44:	53000100 	movwpl	r0, #256	; 0x100
	...
     c50:	0000061c 	andeq	r0, r0, ip, lsl r6
     c54:	0000063c 	andeq	r0, r0, ip, lsr r6
     c58:	00510001 	subseq	r0, r1, r1
     c5c:	00000000 	andeq	r0, r0, r0
     c60:	1c000000 	stcne	0, cr0, [r0], {0}
     c64:	30000006 	andcc	r0, r0, r6
     c68:	02000006 	andeq	r0, r0, #6
     c6c:	309f3000 	addscc	r3, pc, r0
     c70:	34000006 	strcc	r0, [r0], #-6
     c74:	06000006 	streq	r0, [r0], -r6
     c78:	70007c00 	andvc	r7, r0, r0, lsl #24
     c7c:	349f1c00 	ldrcc	r1, [pc], #3072	; c84 <TEXT_BASE-0x33f7f37c>
     c80:	3c000006 	stccc	0, cr0, [r0], {6}
     c84:	01000006 	tsteq	r0, r6
     c88:	063c5000 	ldrteq	r5, [ip], -r0
     c8c:	06440000 	strbeq	r0, [r4], -r0
     c90:	00020000 	andeq	r0, r2, r0
     c94:	06449f30 	undefined instruction 0x06449f30
     c98:	06480000 	strbeq	r0, [r8], -r0
     c9c:	00060000 	andeq	r0, r6, r0
     ca0:	007c0074 	rsbseq	r0, ip, r4, ror r0
     ca4:	06489f1c 	undefined instruction 0x06489f1c
     ca8:	064c0000 	strbeq	r0, [ip], -r0
     cac:	00010000 	andeq	r0, r1, r0
     cb0:	00064c5c 	andeq	r4, r6, ip, asr ip
     cb4:	00065400 	andeq	r5, r6, r0, lsl #8
     cb8:	30000200 	andcc	r0, r0, r0, lsl #4
     cbc:	0006549f 	muleq	r6, pc, r4
     cc0:	00065c00 	andeq	r5, r6, r0, lsl #24
     cc4:	50000100 	andpl	r0, r0, r0, lsl #2
     cc8:	0000065c 	andeq	r0, r0, ip, asr r6
     ccc:	00000664 	andeq	r0, r0, r4, ror #12
     cd0:	005c0001 	subseq	r0, ip, r1
     cd4:	00000000 	andeq	r0, r0, r0
     cd8:	64000000 	strvs	r0, [r0]
     cdc:	70000006 	andvc	r0, r0, r6
     ce0:	01000006 	tsteq	r0, r6
     ce4:	00005000 	andeq	r5, r0, r0
     ce8:	00000000 	andeq	r0, r0, r0
     cec:	06640000 	strbteq	r0, [r4], -r0
     cf0:	066c0000 	strbteq	r0, [ip], -r0
     cf4:	00010000 	andeq	r0, r1, r0
     cf8:	00000052 	andeq	r0, r0, r2, asr r0
     cfc:	00000000 	andeq	r0, r0, r0
     d00:	00066c00 	andeq	r6, r6, r0, lsl #24
     d04:	00069800 	andeq	r9, r6, r0, lsl #16
     d08:	50000100 	andpl	r0, r0, r0, lsl #2
     d0c:	00000698 	muleq	r0, r8, r6
     d10:	000006a0 	andeq	r0, r0, r0, lsr #13
     d14:	00530001 	subseq	r0, r3, r1
     d18:	00000000 	andeq	r0, r0, r0
     d1c:	a0000000 	andge	r0, r0, r0
     d20:	a8000006 	stmdage	r0, {r1, r2}
     d24:	02000006 	andeq	r0, r0, #6
     d28:	a8007d00 	stmdage	r0, {r8, sl, fp, ip, sp, lr}
     d2c:	50000006 	andpl	r0, r0, r6
     d30:	02000007 	andeq	r0, r0, #7
     d34:	00147d00 	andseq	r7, r4, r0, lsl #26
     d38:	00000000 	andeq	r0, r0, r0
     d3c:	a0000000 	andge	r0, r0, r0
     d40:	cc000006 	stcgt	0, cr0, [r0], {6}
     d44:	01000006 	tsteq	r0, r6
     d48:	06d45000 	ldrbeq	r5, [r4], r0
     d4c:	070c0000 	streq	r0, [ip, -r0]
     d50:	00010000 	andeq	r0, r1, r0
     d54:	00073c50 	andeq	r3, r7, r0, asr ip
     d58:	00074400 	andeq	r4, r7, r0, lsl #8
     d5c:	70000300 	andvc	r0, r0, r0, lsl #6
     d60:	07449f01 	strbeq	r9, [r4, -r1, lsl #30]
     d64:	07480000 	strbeq	r0, [r8, -r0]
     d68:	00010000 	andeq	r0, r1, r0
     d6c:	00000050 	andeq	r0, r0, r0, asr r0
     d70:	00000000 	andeq	r0, r0, r0
     d74:	0006a000 	andeq	sl, r6, r0
     d78:	0006b000 	andeq	fp, r6, r0
     d7c:	51000100 	tstpl	r0, r0, lsl #2
     d80:	000006b4 	undefined instruction 0x000006b4
     d84:	00000750 	andeq	r0, r0, r0, asr r7
     d88:	00510001 	subseq	r0, r1, r1
     d8c:	00000000 	andeq	r0, r0, r0
     d90:	fc000000 	stc2	0, cr0, [r0], {0}
     d94:	04000006 	streq	r0, [r0], #-6
     d98:	01000007 	tsteq	r0, r7
     d9c:	07045700 	streq	r5, [r4, -r0, lsl #14]
     da0:	070c0000 	streq	r0, [ip, -r0]
     da4:	00030000 	andeq	r0, r3, r0
     da8:	409f7f77 	addsmi	r7, pc, r7, ror pc
     dac:	48000007 	stmdami	r0, {r0, r1, r2}
     db0:	03000007 	movweq	r0, #7
     db4:	9f7f7700 	svcls	0x007f7700
	...
     dc0:	000006c4 	andeq	r0, r0, r4, asr #13
     dc4:	000006cc 	andeq	r0, r0, ip, asr #13
     dc8:	00740006 	rsbseq	r0, r4, r6
     dcc:	9f1c0071 	svcls	0x001c0071
     dd0:	000006d4 	ldrdeq	r0, [r0], -r4
     dd4:	00000750 	andeq	r0, r0, r0, asr r7
     dd8:	00580001 	subseq	r0, r8, r1
     ddc:	00000000 	andeq	r0, r0, r0
     de0:	a0000000 	andge	r0, r0, r0
     de4:	b4000006 	strlt	r0, [r0], #-6
     de8:	01000006 	tsteq	r0, r6
     dec:	06b85100 	ldrteq	r5, [r8], r0, lsl #2
     df0:	06bc0000 	ldrteq	r0, [ip], r0
     df4:	00010000 	andeq	r0, r1, r0
     df8:	0006bc52 	andeq	fp, r6, r2, asr ip
     dfc:	0006cc00 	andeq	ip, r6, r0, lsl #24
     e00:	54000100 	strpl	r0, [r0], #-256	; 0x100
     e04:	000006d4 	ldrdeq	r0, [r0], -r4
     e08:	000006e8 	andeq	r0, r0, r8, ror #13
     e0c:	00540001 	subseq	r0, r4, r1
     e10:	00000000 	andeq	r0, r0, r0
     e14:	d4000000 	strle	r0, [r0]
     e18:	e8000006 	stmda	r0, {r1, r2}
     e1c:	01000006 	tsteq	r0, r6
     e20:	06ec5000 	strbteq	r5, [ip], r0
     e24:	06f00000 	ldrbteq	r0, [r0], r0
     e28:	00010000 	andeq	r0, r1, r0
     e2c:	0006f052 	andeq	pc, r6, r2, asr r0
     e30:	0006f800 	andeq	pc, r6, r0, lsl #16
     e34:	57000100 	strpl	r0, [r0, -r0, lsl #2]
	...
     e40:	00000704 	andeq	r0, r0, r4, lsl #14
     e44:	00000720 	andeq	r0, r0, r0, lsr #14
     e48:	20580001 	subscs	r0, r8, r1
     e4c:	24000007 	strcs	r0, [r0], #-7
     e50:	03000007 	movweq	r0, #7
     e54:	9f7f7200 	svcls	0x007f7200
     e58:	00000724 	andeq	r0, r0, r4, lsr #14
     e5c:	00000738 	andeq	r0, r0, r8, lsr r7
     e60:	40520001 	subsmi	r0, r2, r1
     e64:	48000007 	stmdami	r0, {r0, r1, r2}
     e68:	01000007 	tsteq	r0, r7
     e6c:	00005800 	andeq	r5, r0, r0, lsl #16
     e70:	00000000 	andeq	r0, r0, r0
     e74:	07040000 	streq	r0, [r4, -r0]
     e78:	07480000 	strbeq	r0, [r8, -r0]
     e7c:	00010000 	andeq	r0, r1, r0
     e80:	00000051 	andeq	r0, r0, r1, asr r0
     e84:	00000000 	andeq	r0, r0, r0
     e88:	00070400 	andeq	r0, r7, r0, lsl #8
     e8c:	00070c00 	andeq	r0, r7, r0, lsl #24
     e90:	50000100 	andpl	r0, r0, r0, lsl #2
     e94:	00000740 	andeq	r0, r0, r0, asr #14
     e98:	00000744 	andeq	r0, r0, r4, asr #14
     e9c:	44500001 	ldrbmi	r0, [r0], #-1
     ea0:	48000007 	stmdami	r0, {r0, r1, r2}
     ea4:	03000007 	movweq	r0, #7
     ea8:	9f7f7000 	svcls	0x007f7000
	...
     eb4:	00000704 	andeq	r0, r0, r4, lsl #14
     eb8:	0000070c 	andeq	r0, r0, ip, lsl #14
     ebc:	40500001 	subsmi	r0, r0, r1
     ec0:	44000007 	strmi	r0, [r0], #-7
     ec4:	01000007 	tsteq	r0, r7
     ec8:	07445000 	strbeq	r5, [r4, -r0]
     ecc:	07480000 	strbeq	r0, [r8, -r0]
     ed0:	00030000 	andeq	r0, r3, r0
     ed4:	009f7f70 	addseq	r7, pc, r0, ror pc
     ed8:	00000000 	andeq	r0, r0, r0
     edc:	04000000 	streq	r0, [r0]
     ee0:	20000007 	andcs	r0, r0, r7
     ee4:	01000007 	tsteq	r0, r7
     ee8:	07405100 	strbeq	r5, [r0, -r0, lsl #2]
     eec:	07480000 	strbeq	r0, [r8, -r0]
     ef0:	00010000 	andeq	r0, r1, r0
     ef4:	00000051 	andeq	r0, r0, r1, asr r0
     ef8:	00000000 	andeq	r0, r0, r0
     efc:	00070400 	andeq	r0, r7, r0, lsl #8
     f00:	00070c00 	andeq	r0, r7, r0, lsl #24
     f04:	30000200 	andcc	r0, r0, r0, lsl #4
     f08:	00070c9f 	muleq	r7, pc, ip
     f0c:	00072000 	andeq	r2, r7, r0
     f10:	70001000 	andvc	r1, r0, r0
     f14:	48019400 	stmdami	r1, {sl, ip, pc}
     f18:	73264824 	teqvc	r6, #2359296	; 0x240000
     f1c:	48244800 	stmdami	r4!, {fp, lr}
     f20:	209f1c26 	addscs	r1, pc, r6, lsr #24
     f24:	30000007 	andcc	r0, r0, r7
     f28:	02000007 	andeq	r0, r0, #7
     f2c:	309f3000 	addscc	r3, pc, r0
     f30:	38000007 	stmdacc	r0, {r0, r1, r2}
     f34:	0e000007 	cdpeq	0, 0, cr0, cr0, cr7, {0}
     f38:	48007600 	stmdami	r0, {r9, sl, ip, sp, lr}
     f3c:	75264824 	strvc	r4, [r6, #-2084]!	; 0x824
     f40:	48244800 	stmdami	r4!, {fp, lr}
     f44:	409f1c26 	addsmi	r1, pc, r6, lsr #24
     f48:	48000007 	stmdami	r0, {r0, r1, r2}
     f4c:	02000007 	andeq	r0, r0, #7
     f50:	009f3000 	addseq	r3, pc, r0
     f54:	00000000 	andeq	r0, r0, r0
     f58:	50000000 	andpl	r0, r0, r0
     f5c:	58000007 	stmdapl	r0, {r0, r1, r2}
     f60:	01000007 	tsteq	r0, r7
     f64:	00005000 	andeq	r5, r0, r0
     f68:	00000000 	andeq	r0, r0, r0
     f6c:	07500000 	ldrbeq	r0, [r0, -r0]
     f70:	07540000 	ldrbeq	r0, [r4, -r0]
     f74:	00010000 	andeq	r0, r1, r0
     f78:	00000051 	andeq	r0, r0, r1, asr r0
     f7c:	00000000 	andeq	r0, r0, r0
     f80:	00075000 	andeq	r5, r7, r0
     f84:	00075800 	andeq	r5, r7, r0, lsl #16
     f88:	52000100 	andpl	r0, r0, #0
	...
     f94:	00000750 	andeq	r0, r0, r0, asr r7
     f98:	0000075c 	andeq	r0, r0, ip, asr r7
     f9c:	5c500001 	mrrcpl	0, 0, r0, r0, cr1
     fa0:	68000007 	stmdavs	r0, {r0, r1, r2}
     fa4:	03000007 	movweq	r0, #7
     fa8:	9f017c00 	svcls	0x00017c00
     fac:	00000770 	andeq	r0, r0, r0, ror r7
     fb0:	00000778 	andeq	r0, r0, r8, ror r7
     fb4:	78500001 	ldmdavc	r0, {r0}^
     fb8:	7c000007 	stcvc	0, cr0, [r0], {7}
     fbc:	01000007 	tsteq	r0, r7
     fc0:	077c5c00 	ldrbeq	r5, [ip, -r0, lsl #24]!
     fc4:	07840000 	streq	r0, [r4, r0]
     fc8:	00030000 	andeq	r0, r3, r0
     fcc:	009f017c 	addseq	r0, pc, ip, ror r1
	...
     fd8:	04000000 	streq	r0, [r0]
     fdc:	02000000 	andeq	r0, r0, #0
     fe0:	04007d00 	streq	r7, [r0], #-3328	; 0xd00
     fe4:	08000000 	stmdaeq	r0, {}
     fe8:	02000000 	andeq	r0, r0, #0
     fec:	08247d00 	stmdaeq	r4!, {r8, sl, fp, ip, sp, lr}
     ff0:	f8000000 	undefined instruction 0xf8000000
     ff4:	03000002 	movweq	r0, #2
     ff8:	01807d00 	orreq	r7, r0, r0, lsl #26
	...
    1008:	00000048 	andeq	r0, r0, r8, asr #32
    100c:	48500001 	ldmdami	r0, {r0}^
    1010:	dc000000 	stcle	0, cr0, [r0], {0}
    1014:	01000000 	tsteq	r0, r0
    1018:	00dc5500 	sbcseq	r5, ip, r0, lsl #10
    101c:	00e80000 	rsceq	r0, r8, r0
    1020:	00010000 	andeq	r0, r1, r0
    1024:	0000e852 	andeq	lr, r0, r2, asr r8
    1028:	0000f400 	andeq	pc, r0, r0, lsl #8
    102c:	52000100 	andpl	r0, r0, #0
    1030:	000000fc 	strdeq	r0, [r0], -ip
    1034:	00000114 	andeq	r0, r0, r4, lsl r1
    1038:	14550001 	ldrbne	r0, [r5], #-1
    103c:	5c000001 	stcpl	0, cr0, [r0], {1}
    1040:	01000001 	tsteq	r0, r1
    1044:	015c5500 	cmpeq	ip, r0, lsl #10
    1048:	01780000 	cmneq	r8, r0
    104c:	00010000 	andeq	r0, r1, r0
    1050:	00019c55 	andeq	r9, r1, r5, asr ip
    1054:	0001b400 	andeq	fp, r1, r0, lsl #8
    1058:	55000100 	strpl	r0, [r0, #-256]	; 0x100
    105c:	000001b4 	undefined instruction 0x000001b4
    1060:	000001d4 	ldrdeq	r0, [r0], -r4
    1064:	d4550001 	ldrble	r0, [r5], #-1
    1068:	e4000001 	str	r0, [r0], #-1
    106c:	01000001 	tsteq	r0, r1
    1070:	01e45500 	mvneq	r5, r0, lsl #10
    1074:	01ec0000 	mvneq	r0, r0
    1078:	00010000 	andeq	r0, r1, r0
    107c:	0001ec51 	andeq	lr, r1, r1, asr ip
    1080:	0001f800 	andeq	pc, r1, r0, lsl #16
    1084:	55000100 	strpl	r0, [r0, #-256]	; 0x100
    1088:	000001f8 	strdeq	r0, [r0], -r8
    108c:	00000204 	andeq	r0, r0, r4, lsl #4
    1090:	10550001 	subsne	r0, r5, r1
    1094:	70000002 	andvc	r0, r0, r2
    1098:	01000002 	tsteq	r0, r2
    109c:	02705500 	rsbseq	r5, r0, #0
    10a0:	02740000 	rsbseq	r0, r4, #0
    10a4:	00010000 	andeq	r0, r1, r0
    10a8:	00027450 	andeq	r7, r2, r0, asr r4
    10ac:	00029c00 	andeq	r9, r2, r0, lsl #24
    10b0:	55000100 	strpl	r0, [r0, #-256]	; 0x100
    10b4:	0000029c 	muleq	r0, ip, r2
    10b8:	000002ac 	andeq	r0, r0, ip, lsr #5
    10bc:	ac520001 	mrrcge	0, 0, r0, r2, cr1
    10c0:	c0000002 	andgt	r0, r0, r2
    10c4:	01000002 	tsteq	r0, r2
    10c8:	02c05500 	sbceq	r5, r0, #0
    10cc:	02f80000 	rscseq	r0, r8, #0
    10d0:	00010000 	andeq	r0, r1, r0
    10d4:	00000055 	andeq	r0, r0, r5, asr r0
	...
    10e0:	00002c00 	andeq	r2, r0, r0, lsl #24
    10e4:	51000100 	tstpl	r0, r0, lsl #2
    10e8:	0000002c 	andeq	r0, r0, ip, lsr #32
    10ec:	000002f8 	strdeq	r0, [r0], -r8
    10f0:	00570001 	subseq	r0, r7, r1
	...
    10fc:	a4000000 	strge	r0, [r0]
    1100:	06000000 	streq	r0, [r0], -r0
    1104:	04935200 	ldreq	r5, [r3], #512	; 0x200
    1108:	10049353 	andne	r9, r4, r3, asr r3
    110c:	20000002 	andcs	r0, r0, r2
    1110:	06000002 	streq	r0, [r0], -r2
    1114:	04935200 	ldreq	r5, [r3], #512	; 0x200
    1118:	20049353 	andcs	r9, r4, r3, asr r3
    111c:	8c000002 	stchi	0, cr0, [r0], {2}
    1120:	06000002 	streq	r0, [r0], -r2
    1124:	04935200 	ldreq	r5, [r3], #512	; 0x200
    1128:	c4049353 	strgt	r9, [r4], #-851	; 0x353
    112c:	e8000002 	stmda	r0, {r1}
    1130:	06000002 	streq	r0, [r0], -r2
    1134:	04935200 	ldreq	r5, [r3], #512	; 0x200
    1138:	e8049353 	stmda	r4, {r0, r1, r4, r6, r8, r9, ip, pc}
    113c:	f8000002 	undefined instruction 0xf8000002
    1140:	06000002 	streq	r0, [r0], -r2
    1144:	04935200 	ldreq	r5, [r3], #512	; 0x200
    1148:	00049353 	andeq	r9, r4, r3, asr r3
	...
    1154:	58000000 	stmdapl	r0, {}
    1158:	02000000 	andeq	r0, r0, #0
    115c:	58049100 	stmdapl	r4, {r8, ip, pc}
    1160:	b8000000 	stmdalt	r0, {}
    1164:	02000000 	andeq	r0, r0, #0
    1168:	b87c9100 	ldmdalt	ip!, {r8, ip, pc}^
    116c:	c4000000 	strgt	r0, [r0]
    1170:	01000000 	tsteq	r0, r0
    1174:	00c45000 	sbceq	r5, r4, r0
    1178:	00dc0000 	sbcseq	r0, ip, r0
    117c:	00010000 	andeq	r0, r1, r0
    1180:	0000fc54 	andeq	pc, r0, r4, asr ip
    1184:	00014000 	andeq	r4, r1, r0
    1188:	50000100 	andpl	r0, r0, r0, lsl #2
    118c:	00000140 	andeq	r0, r0, r0, asr #2
    1190:	0000014c 	andeq	r0, r0, ip, asr #2
    1194:	68520001 	ldmdavs	r2, {r0}^
    1198:	e0000001 	and	r0, r0, r1
    119c:	01000001 	tsteq	r0, r1
    11a0:	01e05000 	mvneq	r5, r0
    11a4:	01ec0000 	mvneq	r0, r0
    11a8:	00030000 	andeq	r0, r3, r0
    11ac:	109f7f70 	addsne	r7, pc, r0, ror pc
    11b0:	3c000002 	stccc	0, cr0, [r0], {2}
    11b4:	02000002 	andeq	r0, r0, #2
    11b8:	3c7c9100 	ldfccp	f1, [ip]
    11bc:	64000002 	strvs	r0, [r0], #-2
    11c0:	02000002 	andeq	r0, r0, #2
    11c4:	64049100 	strvs	r9, [r4], #-256	; 0x100
    11c8:	6c000002 	stcvs	0, cr0, [r0], {2}
    11cc:	01000002 	tsteq	r0, r2
    11d0:	026c5100 	rsbeq	r5, ip, #0
    11d4:	02840000 	addeq	r0, r4, #0
    11d8:	00020000 	andeq	r0, r2, r0
    11dc:	02840491 	addeq	r0, r4, #-1862270976	; 0x91000000
    11e0:	028c0000 	addeq	r0, ip, #0
    11e4:	00010000 	andeq	r0, r1, r0
    11e8:	00028c51 	andeq	r8, r2, r1, asr ip
    11ec:	0002c400 	andeq	ip, r2, r0, lsl #8
    11f0:	50000100 	andpl	r0, r0, r0, lsl #2
    11f4:	000002c4 	andeq	r0, r0, r4, asr #5
    11f8:	000002d0 	ldrdeq	r0, [r0], -r0
    11fc:	7c910002 	ldcvc	0, cr0, [r1], {2}
    1200:	000002d0 	ldrdeq	r0, [r0], -r0
    1204:	000002d4 	ldrdeq	r0, [r0], -r4
    1208:	d4500001 	ldrble	r0, [r0], #-1
    120c:	ec000002 	stc	0, cr0, [r0], {2}
    1210:	02000002 	andeq	r0, r0, #2
    1214:	ec049100 	stfd	f1, [r4], {0}
    1218:	f8000002 	undefined instruction 0xf8000002
    121c:	01000002 	tsteq	r0, r2
    1220:	00005100 	andeq	r5, r0, r0, lsl #2
	...
    122c:	00b00000 	adcseq	r0, r0, r0
    1230:	00020000 	andeq	r0, r2, r0
    1234:	00b00891 	umlalseq	r0, r0, r1, r8
    1238:	01680000 	cmneq	r8, r0
    123c:	00010000 	andeq	r0, r1, r0
    1240:	00016851 	andeq	r6, r1, r1, asr r8
    1244:	00017800 	andeq	r7, r1, r0, lsl #16
    1248:	71000300 	tstvc	r0, r0, lsl #6
    124c:	02109f7f 	andseq	r9, r0, #508	; 0x1fc
    1250:	028c0000 	addeq	r0, ip, #0
    1254:	00020000 	andeq	r0, r2, r0
    1258:	028c0891 	addeq	r0, ip, #9502720	; 0x910000
    125c:	02c40000 	sbceq	r0, r4, #0
    1260:	00010000 	andeq	r0, r1, r0
    1264:	0002c451 	andeq	ip, r2, r1, asr r4
    1268:	0002f800 	andeq	pc, r2, r0, lsl #16
    126c:	91000200 	tstls	r0, r0, lsl #4
    1270:	00000008 	andeq	r0, r0, r8
	...
    127c:	00003000 	andeq	r3, r0, r0
    1280:	91000200 	tstls	r0, r0, lsl #4
    1284:	0000300c 	andeq	r3, r0, ip
    1288:	0002f800 	andeq	pc, r2, r0, lsl #16
    128c:	5b000100 	blpl	1694 <TEXT_BASE-0x33f7e96c>
	...
    1298:	00000050 	andeq	r0, r0, r0, asr r0
    129c:	00000204 	andeq	r0, r0, r4, lsl #4
    12a0:	84910003 	ldrhi	r0, [r1], #3
    12a4:	0002107f 	andeq	r1, r2, pc, ror r0
    12a8:	00026c00 	andeq	r6, r2, r0, lsl #24
    12ac:	91000300 	tstls	r0, r0, lsl #6
    12b0:	02747f84 	rsbseq	r7, r4, #528	; 0x210
    12b4:	02f80000 	rscseq	r0, r8, #0
    12b8:	00030000 	andeq	r0, r3, r0
    12bc:	007f8491 	ldrbteq	r8, [pc, #-65]	; 1283 <TEXT_BASE-0x33f7ed7d>
    12c0:	00000000 	andeq	r0, r0, r0
    12c4:	50000000 	andpl	r0, r0, r0
    12c8:	58000000 	stmdapl	r0, {}
    12cc:	02000000 	andeq	r0, r0, #0
    12d0:	589f3000 	ldmpl	pc, {ip, sp}
    12d4:	04000000 	streq	r0, [r0]
    12d8:	03000002 	movweq	r0, #2
    12dc:	7efc9100 	nrmvce	f1, f0
    12e0:	00000210 	andeq	r0, r0, r0, lsl r2
    12e4:	0000023c 	andeq	r0, r0, ip, lsr r2
    12e8:	fc910003 	ldc2	0, cr0, [r1], {3}
    12ec:	00023c7e 	andeq	r3, r2, lr, ror ip
    12f0:	00025400 	andeq	r5, r2, r0, lsl #8
    12f4:	30000200 	andcc	r0, r0, r0, lsl #4
    12f8:	0002549f 	muleq	r2, pc, r4
    12fc:	00026c00 	andeq	r6, r2, r0, lsl #24
    1300:	08000300 	stmdaeq	r0, {r8, r9}
    1304:	02749f20 	rsbseq	r9, r4, #128	; 0x80
    1308:	028c0000 	addeq	r0, ip, #0
    130c:	00030000 	andeq	r0, r3, r0
    1310:	8c9f2b08 	vldmiahi	pc, {d2-d5}
    1314:	d4000002 	strle	r0, [r0], #-2
    1318:	03000002 	movweq	r0, #2
    131c:	7efc9100 	nrmvce	f1, f0
    1320:	000002d4 	ldrdeq	r0, [r0], -r4
    1324:	000002f8 	strdeq	r0, [r0], -r8
    1328:	2d080003 	stccs	0, cr0, [r8, #-12]
    132c:	0000009f 	muleq	r0, pc, r0
    1330:	00000000 	andeq	r0, r0, r0
    1334:	00007c00 	andeq	r7, r0, r0, lsl #24
    1338:	00009400 	andeq	r9, r0, r0, lsl #8
    133c:	30000200 	andcc	r0, r0, r0, lsl #4
    1340:	0000949f 	muleq	r0, pc, r4
    1344:	00009c00 	andeq	r9, r0, r0, lsl #24
    1348:	31000200 	tstcc	r0, r0, lsl #4
    134c:	00009c9f 	muleq	r0, pc, ip
    1350:	00019c00 	andeq	r9, r1, r0, lsl #24
    1354:	56000100 	strpl	r0, [r0], -r0, lsl #2
    1358:	0000019c 	muleq	r0, ip, r1
    135c:	000001b4 	undefined instruction 0x000001b4
    1360:	b4530001 	ldrblt	r0, [r3], #-1
    1364:	b8000001 	stmdalt	r0, {r0}
    1368:	03000001 	movweq	r0, #1
    136c:	9f7f7300 	svcls	0x007f7300
    1370:	000001d4 	ldrdeq	r0, [r0], -r4
    1374:	000001d8 	ldrdeq	r0, [r0], -r8
    1378:	7f730003 	svcvc	0x00730003
    137c:	0002309f 	muleq	r2, pc, r0
    1380:	00023c00 	andeq	r3, r2, r0, lsl #24
    1384:	56000100 	strpl	r0, [r0], -r0, lsl #2
    1388:	0000028c 	andeq	r0, r0, ip, lsl #5
    138c:	000002c4 	andeq	r0, r0, r4, asr #5
    1390:	00560001 	subseq	r0, r6, r1
    1394:	00000000 	andeq	r0, r0, r0
    1398:	9c000000 	stcls	0, cr0, [r0], {0}
    139c:	c4000000 	strgt	r0, [r0]
    13a0:	01000000 	tsteq	r0, r0
    13a4:	00fc5400 	rscseq	r5, ip, r0, lsl #8
    13a8:	01780000 	cmneq	r8, r0
    13ac:	00010000 	andeq	r0, r1, r0
    13b0:	0001b854 	andeq	fp, r1, r4, asr r8
    13b4:	00021c00 	andeq	r1, r2, r0, lsl #24
    13b8:	54000100 	strpl	r0, [r0], #-256	; 0x100
    13bc:	00000220 	andeq	r0, r0, r0, lsr #4
    13c0:	0000023c 	andeq	r0, r0, ip, lsr r2
    13c4:	8c540001 	mrrchi	0, 0, r0, r4, cr1
    13c8:	c4000002 	strgt	r0, [r0], #-2
    13cc:	01000002 	tsteq	r0, r2
    13d0:	00005400 	andeq	r5, r0, r0, lsl #8
    13d4:	00000000 	andeq	r0, r0, r0
    13d8:	02200000 	eoreq	r0, r0, #0
    13dc:	02280000 	eoreq	r0, r8, #0
    13e0:	00060000 	andeq	r0, r6, r0
    13e4:	51049350 	tstpl	r4, r0, asr r3
    13e8:	00000493 	muleq	r0, r3, r4
    13ec:	00000000 	andeq	r0, r0, r0
    13f0:	02240000 	eoreq	r0, r4, #0
    13f4:	02f80000 	rscseq	r0, r8, #0
    13f8:	00010000 	andeq	r0, r1, r0
    13fc:	00000051 	andeq	r0, r0, r1, asr r0
    1400:	00000000 	andeq	r0, r0, r0
    1404:	0002f800 	andeq	pc, r2, r0, lsl #16
    1408:	00030000 	andeq	r0, r3, r0
    140c:	7d000200 	sfmvc	f0, 4, [r0]	; (stcvc 2, cr0, [r0])
    1410:	00030000 	andeq	r0, r3, r0
    1414:	00045800 	andeq	r5, r4, r0, lsl #16
    1418:	7d000200 	sfmvc	f0, 4, [r0]	; (stcvc 2, cr0, [r0])
    141c:	00000010 	andeq	r0, r0, r0, lsl r0
    1420:	00000000 	andeq	r0, r0, r0
    1424:	0002f800 	andeq	pc, r2, r0, lsl #16
    1428:	00034000 	andeq	r4, r3, r0
    142c:	50000100 	andpl	r0, r0, r0, lsl #2
    1430:	00000340 	andeq	r0, r0, r0, asr #6
    1434:	00000348 	andeq	r0, r0, r8, asr #6
    1438:	64530001 	ldrbvs	r0, [r3], #-1
    143c:	74000003 	strvc	r0, [r0], #-3
    1440:	01000003 	tsteq	r0, r3
    1444:	03a85300 	undefined instruction 0x03a85300
    1448:	03ec0000 	mvneq	r0, #0
    144c:	00010000 	andeq	r0, r1, r0
    1450:	0003ec50 	andeq	lr, r3, r0, asr ip
    1454:	00041800 	andeq	r1, r4, r0, lsl #16
    1458:	73000300 	movwvc	r0, #768	; 0x300
    145c:	04189f7f 	ldreq	r9, [r8], #-3967	; 0xf7f
    1460:	04200000 	strteq	r0, [r0]
    1464:	00030000 	andeq	r0, r3, r0
    1468:	209f7e73 	addscs	r7, pc, r3, ror lr
    146c:	24000004 	strcs	r0, [r0], #-4
    1470:	01000004 	tsteq	r0, r4
    1474:	04245000 	strteq	r5, [r4]
    1478:	04400000 	strbeq	r0, [r0]
    147c:	00010000 	andeq	r0, r1, r0
    1480:	00000053 	andeq	r0, r0, r3, asr r0
    1484:	00000000 	andeq	r0, r0, r0
    1488:	0002f800 	andeq	pc, r2, r0, lsl #16
    148c:	00030800 	andeq	r0, r3, r0, lsl #16
    1490:	52000100 	andpl	r0, r0, #0
    1494:	00000308 	andeq	r0, r0, r8, lsl #6
    1498:	00000328 	andeq	r0, r0, r8, lsr #6
    149c:	9f3a0002 	svcls	0x003a0002
    14a0:	00000328 	andeq	r0, r0, r8, lsr #6
    14a4:	00000340 	andeq	r0, r0, r0, asr #6
    14a8:	40520001 	subsmi	r0, r2, r1
    14ac:	48000003 	stmdami	r0, {r0, r1}
    14b0:	01000003 	tsteq	r0, r3
    14b4:	035c5200 	cmpeq	ip, #0
    14b8:	03740000 	cmneq	r4, #0
    14bc:	00010000 	andeq	r0, r1, r0
    14c0:	0003a852 	andeq	sl, r3, r2, asr r8
    14c4:	0003c400 	andeq	ip, r3, r0, lsl #8
    14c8:	52000100 	andpl	r0, r0, #0
    14cc:	000003c4 	andeq	r0, r0, r4, asr #7
    14d0:	00000420 	andeq	r0, r0, r0, lsr #8
    14d4:	9f380002 	svcls	0x00380002
    14d8:	00000420 	andeq	r0, r0, r0, lsr #8
    14dc:	00000458 	andeq	r0, r0, r8, asr r4
    14e0:	00520001 	subseq	r0, r2, r1
    14e4:	00000000 	andeq	r0, r0, r0
    14e8:	f8000000 	undefined instruction 0xf8000000
    14ec:	54000002 	strpl	r0, [r0], #-2
    14f0:	02000003 	andeq	r0, r0, #3
    14f4:	5c9f3000 	ldcpl	0, cr3, [pc], {0}
    14f8:	74000003 	strvc	r0, [r0], #-3
    14fc:	01000003 	tsteq	r0, r3
    1500:	03a85000 	undefined instruction 0x03a85000
    1504:	04580000 	ldrbeq	r0, [r8]
    1508:	00020000 	andeq	r0, r2, r0
    150c:	00009f30 	andeq	r9, r0, r0, lsr pc
    1510:	00000000 	andeq	r0, r0, r0
    1514:	03540000 	cmpeq	r4, #0
    1518:	036c0000 	cmneq	ip, #0
    151c:	00010000 	andeq	r0, r1, r0
    1520:	00039055 	andeq	r9, r3, r5, asr r0
    1524:	00039800 	andeq	r9, r3, r0, lsl #16
    1528:	55000100 	strpl	r0, [r0, #-256]	; 0x100
	...
    1534:	00000380 	andeq	r0, r0, r0, lsl #7
    1538:	00000388 	andeq	r0, r0, r8, lsl #7
    153c:	8c5c0001 	mrrchi	0, 0, r0, ip, cr1
    1540:	90000003 	andls	r0, r0, r3
    1544:	01000003 	tsteq	r0, r3
    1548:	00005c00 	andeq	r5, r0, r0, lsl #24
    154c:	00000000 	andeq	r0, r0, r0
    1550:	03c80000 	biceq	r0, r8, #0
    1554:	03e00000 	mvneq	r0, #0
    1558:	00010000 	andeq	r0, r1, r0
    155c:	0003e05c 	andeq	lr, r3, ip, asr r0
    1560:	0003e400 	andeq	lr, r3, r0, lsl #8
    1564:	52000100 	andpl	r0, r0, #0
    1568:	000003e4 	andeq	r0, r0, r4, ror #7
    156c:	000003ec 	andeq	r0, r0, ip, ror #7
    1570:	f4520001 	undefined instruction 0xf4520001
    1574:	00000003 	andeq	r0, r0, r3
    1578:	01000004 	tsteq	r0, r4
    157c:	00005200 	andeq	r5, r0, r0, lsl #4
    1580:	00000000 	andeq	r0, r0, r0
    1584:	04240000 	strteq	r0, [r4]
    1588:	04340000 	ldrteq	r0, [r4]
    158c:	00010000 	andeq	r0, r1, r0
    1590:	00043850 	andeq	r3, r4, r0, asr r8
    1594:	00045800 	andeq	r5, r4, r0, lsl #16
    1598:	50000100 	andpl	r0, r0, r0, lsl #2
	...
    15a4:	00000458 	andeq	r0, r0, r8, asr r4
    15a8:	0000045c 	andeq	r0, r0, ip, asr r4
    15ac:	007d0002 	rsbseq	r0, sp, r2
    15b0:	0000045c 	andeq	r0, r0, ip, asr r4
    15b4:	00000480 	andeq	r0, r0, r0, lsl #9
    15b8:	087d0002 	ldmdaeq	sp!, {r1}^
	...
    15c4:	00000458 	andeq	r0, r0, r8, asr r4
    15c8:	0000046f 	andeq	r0, r0, pc, ror #8
    15cc:	70500001 	subsvc	r0, r0, r1
    15d0:	74000004 	strvc	r0, [r0], #-4
    15d4:	01000004 	tsteq	r0, r4
    15d8:	04745000 	ldrbteq	r5, [r4]
    15dc:	04770000 	ldrbteq	r0, [r7]
    15e0:	00030000 	andeq	r0, r3, r0
    15e4:	009f7f70 	addseq	r7, pc, r0, ror pc
    15e8:	00000000 	andeq	r0, r0, r0
    15ec:	58000000 	stmdapl	r0, {}
    15f0:	6f000004 	svcvs	0x00000004
    15f4:	01000004 	tsteq	r0, r4
    15f8:	04705100 	ldrbteq	r5, [r0], #-256	; 0x100
    15fc:	04770000 	ldrbteq	r0, [r7]
    1600:	00010000 	andeq	r0, r1, r0
    1604:	00000051 	andeq	r0, r0, r1, asr r0
    1608:	00000000 	andeq	r0, r0, r0
    160c:	00045800 	andeq	r5, r4, r0, lsl #16
    1610:	00046f00 	andeq	r6, r4, r0, lsl #30
    1614:	52000100 	andpl	r0, r0, #0
    1618:	00000470 	andeq	r0, r0, r0, ror r4
    161c:	00000477 	andeq	r0, r0, r7, ror r4
    1620:	00520001 	subseq	r0, r2, r1
    1624:	00000000 	andeq	r0, r0, r0
    1628:	80000000 	andhi	r0, r0, r0
    162c:	84000004 	strhi	r0, [r0], #-4
    1630:	02000004 	andeq	r0, r0, #4
    1634:	84007d00 	strhi	r7, [r0], #-3328	; 0xd00
    1638:	8c000004 	stchi	0, cr0, [r0], {4}
    163c:	02000004 	andeq	r0, r0, #4
    1640:	8c207d00 	stchi	13, cr7, [r0]
    1644:	40000004 	andmi	r0, r0, r4
    1648:	02000006 	andeq	r0, r0, #6
    164c:	00287d00 	eoreq	r7, r8, r0, lsl #26
    1650:	00000000 	andeq	r0, r0, r0
    1654:	80000000 	andhi	r0, r0, r0
    1658:	cc000004 	stcgt	0, cr0, [r0], {4}
    165c:	01000004 	tsteq	r0, r4
    1660:	04cc5000 	strbeq	r5, [ip]
    1664:	04dc0000 	ldrbeq	r0, [ip]
    1668:	00010000 	andeq	r0, r1, r0
    166c:	00051450 	andeq	r1, r5, r0, asr r4
    1670:	00051c00 	andeq	r1, r5, r0, lsl #24
    1674:	58000100 	stmdapl	r0, {r8}
    1678:	0000051c 	andeq	r0, r0, ip, lsl r5
    167c:	00000520 	andeq	r0, r0, r0, lsr #10
    1680:	80500001 	subshi	r0, r0, r1
    1684:	84000005 	strhi	r0, [r0], #-5
    1688:	01000005 	tsteq	r0, r5
    168c:	05845000 	streq	r5, [r4]
    1690:	05b00000 	ldreq	r0, [r0]!
    1694:	00030000 	andeq	r0, r3, r0
    1698:	b09f7f70 	addslt	r7, pc, r0, ror pc
    169c:	cc000005 	stcgt	0, cr0, [r0], {5}
    16a0:	01000005 	tsteq	r0, r5
    16a4:	05cc5000 	strbeq	r5, [ip]
    16a8:	05f00000 	ldrbeq	r0, [r0]!
    16ac:	00030000 	andeq	r0, r3, r0
    16b0:	f09f7f70 	undefined instruction 0xf09f7f70
    16b4:	fc000005 	stc2	0, cr0, [r0], {5}
    16b8:	03000005 	movweq	r0, #5
    16bc:	9f7e7000 	svcls	0x007e7000
    16c0:	000005fc 	strdeq	r0, [r0], -ip
    16c4:	00000628 	andeq	r0, r0, r8, lsr #12
    16c8:	00500001 	subseq	r0, r0, r1
    16cc:	00000000 	andeq	r0, r0, r0
    16d0:	80000000 	andhi	r0, r0, r0
    16d4:	cc000004 	stcgt	0, cr0, [r0], {4}
    16d8:	01000004 	tsteq	r0, r4
    16dc:	04cc5100 	strbeq	r5, [ip], #256	; 0x100
    16e0:	06400000 	strbeq	r0, [r0], -r0
    16e4:	00020000 	andeq	r0, r2, r0
    16e8:	00005491 	muleq	r0, r1, r4
    16ec:	00000000 	andeq	r0, r0, r0
    16f0:	04800000 	streq	r0, [r0]
    16f4:	04940000 	ldreq	r0, [r4]
    16f8:	00010000 	andeq	r0, r1, r0
    16fc:	00049452 	andeq	r9, r4, r2, asr r4
    1700:	0004b400 	andeq	fp, r4, r0, lsl #8
    1704:	3a000200 	bcc	1f0c <TEXT_BASE-0x33f7e0f4>
    1708:	0004b49f 	muleq	r4, pc, r4
    170c:	0004cc00 	andeq	ip, r4, r0, lsl #24
    1710:	52000100 	andpl	r0, r0, #0
    1714:	000004cc 	andeq	r0, r0, ip, asr #9
    1718:	000004dc 	ldrdeq	r0, [r0], -ip
    171c:	80520001 	subshi	r0, r2, r1
    1720:	b0000005 	andlt	r0, r0, r5
    1724:	02000005 	andeq	r0, r0, #5
    1728:	b09f3800 	addslt	r3, pc, r0, lsl #16
    172c:	cc000005 	stcgt	0, cr0, [r0], {5}
    1730:	01000005 	tsteq	r0, r5
    1734:	05cc5200 	strbeq	r5, [ip, #512]	; 0x200
    1738:	05fc0000 	ldrbeq	r0, [ip]!
    173c:	00020000 	andeq	r0, r2, r0
    1740:	05fc9f38 	ldrbeq	r9, [ip, #3896]!	; 0xf38
    1744:	06000000 	streq	r0, [r0], -r0
    1748:	00010000 	andeq	r0, r1, r0
    174c:	00060852 	andeq	r0, r6, r2, asr r8
    1750:	00064000 	andeq	r4, r6, r0
    1754:	52000100 	andpl	r0, r0, #0
	...
    1760:	00000480 	andeq	r0, r0, r0, lsl #9
    1764:	000004ec 	andeq	r0, r0, ip, ror #9
    1768:	089e000a 	ldmeq	lr, {r1, r3}
	...
    1774:	0000050c 	andeq	r0, r0, ip, lsl #10
    1778:	00000520 	andeq	r0, r0, r0, lsr #10
    177c:	93520006 	cmpls	r2, #6
    1780:	04935304 	ldreq	r5, [r3], #772	; 0x304
    1784:	00000580 	andeq	r0, r0, r0, lsl #11
    1788:	00000640 	andeq	r0, r0, r0, asr #12
    178c:	089e000a 	ldmeq	lr, {r1, r3}
	...
    17a0:	000004ec 	andeq	r0, r0, ip, ror #9
    17a4:	00000518 	andeq	r0, r0, r8, lsl r5
    17a8:	935a0006 	cmpls	sl, #6
    17ac:	04935b04 	ldreq	r5, [r3], #2820	; 0xb04
    17b0:	00000548 	andeq	r0, r0, r8, asr #10
    17b4:	00000560 	andeq	r0, r0, r0, ror #10
    17b8:	935a0006 	cmpls	sl, #6
    17bc:	04935b04 	ldreq	r5, [r3], #2820	; 0xb04
	...
    17c8:	00000534 	andeq	r0, r0, r4, lsr r5
    17cc:	00000544 	andeq	r0, r0, r4, asr #10
    17d0:	60770003 	rsbsvs	r0, r7, r3
    17d4:	0000009f 	muleq	r0, pc, r0
    17d8:	00000000 	andeq	r0, r0, r0
    17dc:	00058400 	andeq	r8, r5, r0, lsl #8
    17e0:	00059c00 	andeq	r9, r5, r0, lsl #24
    17e4:	57000100 	strpl	r0, [r0, -r0, lsl #2]
    17e8:	0000059c 	muleq	r0, ip, r5
    17ec:	000005a0 	andeq	r0, r0, r0, lsr #11
    17f0:	a0530001 	subsge	r0, r3, r1
    17f4:	a8000005 	stmdage	r0, {r0, r2}
    17f8:	01000005 	tsteq	r0, r5
    17fc:	05cc5300 	strbeq	r5, [ip, #768]	; 0x300
    1800:	05d80000 	ldrbeq	r0, [r8]
    1804:	00010000 	andeq	r0, r1, r0
    1808:	00000053 	andeq	r0, r0, r3, asr r0
    180c:	00000000 	andeq	r0, r0, r0
    1810:	00060c00 	andeq	r0, r6, r0, lsl #24
    1814:	00061c00 	andeq	r1, r6, r0, lsl #24
    1818:	53000100 	movwpl	r0, #256	; 0x100
    181c:	00000620 	andeq	r0, r0, r0, lsr #12
    1820:	00000640 	andeq	r0, r0, r0, asr #12
    1824:	00530001 	subseq	r0, r3, r1
    1828:	00000000 	andeq	r0, r0, r0
    182c:	40000000 	andmi	r0, r0, r0
    1830:	44000006 	strmi	r0, [r0], #-6
    1834:	02000006 	andeq	r0, r0, #6
    1838:	44007d00 	strmi	r7, [r0], #-3328	; 0xd00
    183c:	74000006 	strvc	r0, [r0], #-6
    1840:	02000006 	andeq	r0, r0, #6
    1844:	00087d00 	andeq	r7, r8, r0, lsl #26
    1848:	00000000 	andeq	r0, r0, r0
    184c:	40000000 	andmi	r0, r0, r0
    1850:	57000006 	strpl	r0, [r0, -r6]
    1854:	01000006 	tsteq	r0, r6
    1858:	06585000 	ldrbeq	r5, [r8], -r0
    185c:	065c0000 	ldrbeq	r0, [ip], -r0
    1860:	00010000 	andeq	r0, r1, r0
    1864:	00065c50 	andeq	r5, r6, r0, asr ip
    1868:	00065f00 	andeq	r5, r6, r0, lsl #30
    186c:	70000300 	andvc	r0, r0, r0, lsl #6
    1870:	00009f7f 	andeq	r9, r0, pc, ror pc
    1874:	00000000 	andeq	r0, r0, r0
    1878:	06400000 	strbeq	r0, [r0], -r0
    187c:	06570000 	ldrbeq	r0, [r7], -r0
    1880:	00010000 	andeq	r0, r1, r0
    1884:	00065851 	andeq	r5, r6, r1, asr r8
    1888:	00065f00 	andeq	r5, r6, r0, lsl #30
    188c:	51000100 	tstpl	r0, r0, lsl #2
	...
    1898:	00000640 	andeq	r0, r0, r0, asr #12
    189c:	00000657 	andeq	r0, r0, r7, asr r6
    18a0:	58520001 	ldmdapl	r2, {r0}^
    18a4:	5f000006 	svcpl	0x00000006
    18a8:	01000006 	tsteq	r0, r6
    18ac:	00005200 	andeq	r5, r0, r0, lsl #4
    18b0:	00000000 	andeq	r0, r0, r0
    18b4:	06740000 	ldrbteq	r0, [r4], -r0
    18b8:	06780000 	ldrbteq	r0, [r8], -r0
    18bc:	00020000 	andeq	r0, r2, r0
    18c0:	0678007d 	undefined instruction 0x0678007d
    18c4:	06800000 	streq	r0, [r0], r0
    18c8:	00020000 	andeq	r0, r2, r0
    18cc:	0680247d 	sxtab16eq	r2, r0, sp, ror #8
    18d0:	0d040000 	stceq	0, cr0, [r4]
    18d4:	00030000 	andeq	r0, r3, r0
    18d8:	0000c07d 	andeq	ip, r0, sp, ror r0
    18dc:	00000000 	andeq	r0, r0, r0
    18e0:	74000000 	strvc	r0, [r0]
    18e4:	b4000006 	strlt	r0, [r0], #-6
    18e8:	01000006 	tsteq	r0, r6
    18ec:	06b45000 	ldrteq	r5, [r4], r0
    18f0:	06d00000 	ldrbeq	r0, [r0], r0
    18f4:	00010000 	andeq	r0, r1, r0
    18f8:	0006d05b 	andeq	sp, r6, fp, asr r0
    18fc:	00070000 	andeq	r0, r7, r0
    1900:	91000200 	tstls	r0, r0, lsl #4
    1904:	0007284c 	andeq	r2, r7, ip, asr #16
    1908:	000ce400 	andeq	lr, ip, r0, lsl #8
    190c:	91000200 	tstls	r0, r0, lsl #4
    1910:	000ce44c 	andeq	lr, ip, ip, asr #8
    1914:	000cec00 	andeq	lr, ip, r0, lsl #24
    1918:	50000100 	andpl	r0, r0, r0, lsl #2
    191c:	00000cec 	andeq	r0, r0, ip, ror #25
    1920:	00000d04 	andeq	r0, r0, r4, lsl #26
    1924:	005b0001 	subseq	r0, fp, r1
    1928:	00000000 	andeq	r0, r0, r0
    192c:	74000000 	strvc	r0, [r0]
    1930:	b0000006 	andlt	r0, r0, r6
    1934:	01000006 	tsteq	r0, r6
    1938:	06b05100 	ldrteq	r5, [r0], r0, lsl #2
    193c:	0d040000 	stceq	0, cr0, [r4]
    1940:	00020000 	andeq	r0, r2, r0
    1944:	00004891 	muleq	r0, r1, r8
    1948:	00000000 	andeq	r0, r0, r0
    194c:	06740000 	ldrbteq	r0, [r4], -r0
    1950:	06ac0000 	strteq	r0, [ip], r0
    1954:	00010000 	andeq	r0, r1, r0
    1958:	0006ac52 	andeq	sl, r6, r2, asr ip
    195c:	0006d000 	andeq	sp, r6, r0
    1960:	54000100 	strpl	r0, [r0], #-256	; 0x100
    1964:	000006ec 	andeq	r0, r0, ip, ror #13
    1968:	000006f0 	strdeq	r0, [r0], -r0
    196c:	f0540001 	undefined instruction 0xf0540001
    1970:	00000006 	andeq	r0, r0, r6
    1974:	03000007 	movweq	r0, #7
    1978:	9f7f7400 	svcls	0x007f7400
    197c:	00000728 	andeq	r0, r0, r8, lsr #14
    1980:	0000072c 	andeq	r0, r0, ip, lsr #14
    1984:	30540001 	subscc	r0, r4, r1
    1988:	34000007 	strcc	r0, [r0], #-7
    198c:	01000007 	tsteq	r0, r7
    1990:	07345300 	ldreq	r5, [r4, -r0, lsl #6]!
    1994:	07bc0000 	ldreq	r0, [ip, r0]!
    1998:	00010000 	andeq	r0, r1, r0
    199c:	0007dc54 	andeq	sp, r7, r4, asr ip
    19a0:	0007e800 	andeq	lr, r7, r0, lsl #16
    19a4:	54000100 	strpl	r0, [r0], #-256	; 0x100
    19a8:	000007e8 	andeq	r0, r0, r8, ror #15
    19ac:	00000810 	andeq	r0, r0, r0, lsl r8
    19b0:	10540001 	subsne	r0, r4, r1
    19b4:	78000008 	stmdavc	r0, {r3}
    19b8:	01000009 	tsteq	r0, r9
    19bc:	09785400 	ldmdbeq	r8!, {sl, ip, lr}^
    19c0:	097c0000 	ldmdbeq	ip!, {}^
    19c4:	00030000 	andeq	r0, r3, r0
    19c8:	7c9f7f74 	ldcvc	15, cr7, [pc], {116}	; 0x74
    19cc:	90000009 	andls	r0, r0, r9
    19d0:	01000009 	tsteq	r0, r9
    19d4:	09985400 	ldmibeq	r8, {sl, ip, lr}
    19d8:	09ac0000 	stmibeq	ip!, {}
    19dc:	00010000 	andeq	r0, r1, r0
    19e0:	0009ac54 	andeq	sl, r9, r4, asr ip
    19e4:	0009d000 	andeq	sp, r9, r0
    19e8:	54000100 	strpl	r0, [r0], #-256	; 0x100
    19ec:	000009d0 	ldrdeq	r0, [r0], -r0
    19f0:	000009e8 	andeq	r0, r0, r8, ror #19
    19f4:	01740003 	cmneq	r4, r3
    19f8:	000a0c9f 	muleq	sl, pc, ip
    19fc:	000a2800 	andeq	r2, sl, r0, lsl #16
    1a00:	54000100 	strpl	r0, [r0], #-256	; 0x100
    1a04:	00000a28 	andeq	r0, r0, r8, lsr #20
    1a08:	00000a2c 	andeq	r0, r0, ip, lsr #20
    1a0c:	7f740003 	svcvc	0x00740003
    1a10:	000a2c9f 	muleq	sl, pc, ip
    1a14:	000a4000 	andeq	r4, sl, r0
    1a18:	51000100 	tstpl	r0, r0, lsl #2
    1a1c:	00000a40 	andeq	r0, r0, r0, asr #20
    1a20:	00000be0 	andeq	r0, r0, r0, ror #23
    1a24:	f0540001 	undefined instruction 0xf0540001
    1a28:	e400000b 	str	r0, [r0], #-11
    1a2c:	0100000c 	tsteq	r0, ip
    1a30:	0ce45400 	cfstrdeq	mvd5, [r4]
    1a34:	0d040000 	stceq	0, cr0, [r4]
    1a38:	00010000 	andeq	r0, r1, r0
    1a3c:	00000052 	andeq	r0, r0, r2, asr r0
    1a40:	00000000 	andeq	r0, r0, r0
    1a44:	00067400 	andeq	r7, r6, r0, lsl #8
    1a48:	00069c00 	andeq	r9, r6, r0, lsl #24
    1a4c:	53000100 	movwpl	r0, #256	; 0x100
    1a50:	0000069c 	muleq	r0, ip, r6
    1a54:	000006ec 	andeq	r0, r0, ip, ror #13
    1a58:	ec590001 	mrrc	0, 0, r0, r9, cr1
    1a5c:	a8000006 	stmdage	r0, {r1, r2}
    1a60:	01000009 	tsteq	r0, r9
    1a64:	09a85900 	stmibeq	r8!, {r8, fp, ip, lr}
    1a68:	09ac0000 	stmibeq	ip!, {}
    1a6c:	00030000 	andeq	r0, r3, r0
    1a70:	bc9f7c79 	ldclt	12, cr7, [pc], {121}	; 0x79
    1a74:	3c000009 	stccc	0, cr0, [r0], {9}
    1a78:	0100000a 	tsteq	r0, sl
    1a7c:	0a3c5900 	beq	f17e84 <TEXT_BASE-0x3306817c>
    1a80:	0a400000 	beq	1001a88 <TEXT_BASE-0x32f7e578>
    1a84:	00030000 	andeq	r0, r3, r0
    1a88:	409f7c79 	addsmi	r7, pc, r9, ror ip
    1a8c:	7800000a 	stmdavc	r0, {r1, r3}
    1a90:	0100000a 	tsteq	r0, sl
    1a94:	0a785900 	beq	1e17e9c <TEXT_BASE-0x32168164>
    1a98:	0a7c0000 	beq	1f01aa0 <TEXT_BASE-0x3207e560>
    1a9c:	00030000 	andeq	r0, r3, r0
    1aa0:	7c9f7c79 	ldcvc	12, cr7, [pc], {121}	; 0x79
    1aa4:	8400000a 	strhi	r0, [r0], #-10
    1aa8:	0100000a 	tsteq	r0, sl
    1aac:	0a9c5900 	beq	fe717eb4 <MEM_CTL_BASE+0xb6717eb4>
    1ab0:	0aa00000 	beq	fe801ab8 <MEM_CTL_BASE+0xb6801ab8>
    1ab4:	00010000 	andeq	r0, r1, r0
    1ab8:	000aa059 	andeq	sl, sl, r9, asr r0
    1abc:	000b7400 	andeq	r7, fp, r0, lsl #8
    1ac0:	79000300 	stmdbvc	r0, {r8, r9}
    1ac4:	0b749f7c 	bleq	1d298bc <TEXT_BASE-0x32256744>
    1ac8:	0b840000 	bleq	fe101ad0 <MEM_CTL_BASE+0xb6101ad0>
    1acc:	00010000 	andeq	r0, r1, r0
    1ad0:	000b8459 	andeq	r8, fp, r9, asr r4
    1ad4:	000b9800 	andeq	r9, fp, r0, lsl #16
    1ad8:	79000300 	stmdbvc	r0, {r8, r9}
    1adc:	0b989f7c 	bleq	fe6298d4 <MEM_CTL_BASE+0xb66298d4>
    1ae0:	0ba80000 	bleq	fea01ae8 <MEM_CTL_BASE+0xb6a01ae8>
    1ae4:	00010000 	andeq	r0, r1, r0
    1ae8:	000ba859 	andeq	sl, fp, r9, asr r8
    1aec:	000bac00 	andeq	sl, fp, r0, lsl #24
    1af0:	79000300 	stmdbvc	r0, {r8, r9}
    1af4:	0bac9f78 	bleq	feb298dc <MEM_CTL_BASE+0xb6b298dc>
    1af8:	0bf80000 	bleq	ffe01b00 <MEM_CTL_BASE+0xb7e01b00>
    1afc:	00010000 	andeq	r0, r1, r0
    1b00:	000bf859 	andeq	pc, fp, r9, asr r8
    1b04:	000c0400 	andeq	r0, ip, r0, lsl #8
    1b08:	79000300 	stmdbvc	r0, {r8, r9}
    1b0c:	0c049f7c 	stceq	15, cr9, [r4], {124}	; 0x7c
    1b10:	0c580000 	mraeq	r0, r8, acc0
    1b14:	00010000 	andeq	r0, r1, r0
    1b18:	000c5859 	andeq	r5, ip, r9, asr r8
    1b1c:	000c9800 	andeq	r9, ip, r0, lsl #16
    1b20:	79000300 	stmdbvc	r0, {r8, r9}
    1b24:	0c989f7c 	ldceq	15, cr9, [r8], {124}	; 0x7c
    1b28:	0cb00000 	ldceq	0, cr0, [r0]
    1b2c:	00010000 	andeq	r0, r1, r0
    1b30:	000cb059 	andeq	fp, ip, r9, asr r0
    1b34:	000cc000 	andeq	ip, ip, r0
    1b38:	79000300 	stmdbvc	r0, {r8, r9}
    1b3c:	0cc09f7c 	stcleq	15, cr9, [r0], {124}	; 0x7c
    1b40:	0cc40000 	stcleq	0, cr0, [r4], {0}
    1b44:	00010000 	andeq	r0, r1, r0
    1b48:	000cc459 	andeq	ip, ip, r9, asr r4
    1b4c:	000ce400 	andeq	lr, ip, r0, lsl #8
    1b50:	79000300 	stmdbvc	r0, {r8, r9}
    1b54:	0ce49f7c 	stcleq	15, cr9, [r4], #496	; 0x1f0
    1b58:	0ce80000 	stcleq	0, cr0, [r8]
    1b5c:	00010000 	andeq	r0, r1, r0
    1b60:	000ce853 	andeq	lr, ip, r3, asr r8
    1b64:	000d0400 	andeq	r0, sp, r0, lsl #8
    1b68:	59000100 	stmdbpl	r0, {r8}
	...
    1b74:	00000abc 	undefined instruction 0x00000abc
    1b78:	00000b6c 	andeq	r0, r0, ip, ror #22
    1b7c:	00500001 	subseq	r0, r0, r1
    1b80:	00000000 	andeq	r0, r0, r0
    1b84:	7c000000 	stcvc	0, cr0, [r0], {0}
    1b88:	8400000a 	strhi	r0, [r0], #-10
    1b8c:	0600000a 	streq	r0, [r0], -sl
    1b90:	04935200 	ldreq	r5, [r3], #512	; 0x200
    1b94:	a8049353 	stmdage	r4, {r0, r1, r4, r6, r8, r9, ip, pc}
    1b98:	ac00000b 	stcge	0, cr0, [r0], {11}
    1b9c:	0200000b 	andeq	r0, r0, #11
    1ba0:	b8787900 	ldmdalt	r8!, {r8, fp, ip, sp, lr}^
    1ba4:	bc00000c 	stclt	0, cr0, [r0], {12}
    1ba8:	0600000c 	streq	r0, [r0], -ip
    1bac:	04935200 	ldreq	r5, [r3], #512	; 0x200
    1bb0:	bc049353 	stclt	3, cr9, [r4], {83}	; 0x53
    1bb4:	c000000c 	andgt	r0, r0, ip
    1bb8:	0600000c 	streq	r0, [r0], -ip
    1bbc:	04935200 	ldreq	r5, [r3], #512	; 0x200
    1bc0:	d0049353 	andle	r9, r4, r3, asr r3
    1bc4:	d400000c 	strle	r0, [r0], #-12
    1bc8:	0600000c 	streq	r0, [r0], -ip
    1bcc:	04935200 	ldreq	r5, [r3], #512	; 0x200
    1bd0:	00049353 	andeq	r9, r4, r3, asr r3
    1bd4:	00000000 	andeq	r0, r0, r0
    1bd8:	10000000 	andne	r0, r0, r0
    1bdc:	1c00000b 	stcne	0, cr0, [r0], {11}
    1be0:	0200000b 	andeq	r0, r0, #11
    1be4:	309f3000 	addscc	r3, pc, r0
    1be8:	3c00000b 	stccc	0, cr0, [r0], {11}
    1bec:	0100000b 	tsteq	r0, fp
    1bf0:	00005300 	andeq	r5, r0, r0, lsl #6
    1bf4:	00000000 	andeq	r0, r0, r0
    1bf8:	08100000 	ldmdaeq	r0, {}
    1bfc:	09700000 	ldmdbeq	r0!, {}^
    1c00:	00020000 	andeq	r0, r2, r0
    1c04:	0a549f3a 	beq	15298f4 <TEXT_BASE-0x32a5670c>
    1c08:	0a580000 	beq	1601c10 <TEXT_BASE-0x3297e3f0>
    1c0c:	00020000 	andeq	r0, r2, r0
    1c10:	0a589f3a 	beq	1629900 <TEXT_BASE-0x32956700>
    1c14:	0a840000 	beq	fe101c1c <MEM_CTL_BASE+0xb6101c1c>
    1c18:	00010000 	andeq	r0, r1, r0
    1c1c:	000a9c5e 	andeq	r9, sl, lr, asr ip
    1c20:	000b9800 	andeq	r9, fp, r0, lsl #16
    1c24:	3a000200 	bcc	242c <TEXT_BASE-0x33f7dbd4>
    1c28:	000b989f 	muleq	fp, pc, r8
    1c2c:	000ba000 	andeq	sl, fp, r0
    1c30:	38000200 	stmdacc	r0, {r9}
    1c34:	000ba09f 	muleq	fp, pc, r0
    1c38:	000bac00 	andeq	sl, fp, r0, lsl #24
    1c3c:	5e000100 	adfpls	f0, f0, f0
    1c40:	00000bac 	andeq	r0, r0, ip, lsr #23
    1c44:	00000ca4 	andeq	r0, r0, r4, lsr #25
    1c48:	9f3a0002 	svcls	0x003a0002
    1c4c:	00000ca4 	andeq	r0, r0, r4, lsr #25
    1c50:	00000cdc 	ldrdeq	r0, [r0], -ip
    1c54:	dc5e0001 	mrrcle	0, 0, r0, lr, cr1
    1c58:	e400000c 	str	r0, [r0], #-12
    1c5c:	0200000c 	andeq	r0, r0, #12
    1c60:	009f3a00 	addseq	r3, pc, r0, lsl #20
    1c64:	00000000 	andeq	r0, r0, r0
    1c68:	94000000 	strls	r0, [r0]
    1c6c:	b4000006 	strlt	r0, [r0], #-6
    1c70:	01000006 	tsteq	r0, r6
    1c74:	06b45000 	ldrteq	r5, [r4], r0
    1c78:	06d00000 	ldrbeq	r0, [r0], r0
    1c7c:	00010000 	andeq	r0, r1, r0
    1c80:	0006d05b 	andeq	sp, r6, fp, asr r0
    1c84:	0006ec00 	andeq	lr, r6, r0, lsl #24
    1c88:	5a000100 	bpl	2090 <TEXT_BASE-0x33f7df70>
    1c8c:	000006ec 	andeq	r0, r0, ip, ror #13
    1c90:	00000700 	andeq	r0, r0, r0, lsl #14
    1c94:	285a0001 	ldmdacs	sl, {r0}^
    1c98:	98000007 	stmdals	r0, {r0, r1, r2}
    1c9c:	0100000a 	tsteq	r0, sl
    1ca0:	0a985a00 	beq	fe6184a8 <MEM_CTL_BASE+0xb66184a8>
    1ca4:	0a9c0000 	beq	fe701cac <MEM_CTL_BASE+0xb6701cac>
    1ca8:	00010000 	andeq	r0, r1, r0
    1cac:	000a9c50 	andeq	r9, sl, r0, asr ip
    1cb0:	000ad800 	andeq	sp, sl, r0, lsl #16
    1cb4:	5a000100 	bpl	20bc <TEXT_BASE-0x33f7df44>
    1cb8:	00000b10 	andeq	r0, r0, r0, lsl fp
    1cbc:	00000b1c 	andeq	r0, r0, ip, lsl fp
    1cc0:	3c5a0001 	mrrccc	0, 0, r0, sl, cr1
    1cc4:	4800000b 	stmdami	r0, {r0, r1, r3}
    1cc8:	0100000b 	tsteq	r0, fp
    1ccc:	0b745a00 	bleq	1d184d4 <TEXT_BASE-0x32267b2c>
    1cd0:	0bd80000 	bleq	ff601cd8 <MEM_CTL_BASE+0xb7601cd8>
    1cd4:	00010000 	andeq	r0, r1, r0
    1cd8:	000bd85a 	andeq	sp, fp, sl, asr r8
    1cdc:	000c3400 	andeq	r3, ip, r0, lsl #8
    1ce0:	5a000100 	bpl	20e8 <TEXT_BASE-0x33f7df18>
    1ce4:	00000c34 	andeq	r0, r0, r4, lsr ip
    1ce8:	00000c44 	andeq	r0, r0, r4, asr #24
    1cec:	44530001 	ldrbmi	r0, [r3], #-1
    1cf0:	5400000c 	strpl	r0, [r0], #-12
    1cf4:	0100000c 	tsteq	r0, ip
    1cf8:	0c545300 	mrrceq	3, 0, r5, r4, cr0
    1cfc:	0c680000 	stcleq	0, cr0, [r8]
    1d00:	00010000 	andeq	r0, r1, r0
    1d04:	000c685a 	andeq	r6, ip, sl, asr r8
    1d08:	000c7400 	andeq	r7, ip, r0, lsl #8
    1d0c:	52000100 	andpl	r0, r0, #0
    1d10:	00000c74 	andeq	r0, r0, r4, ror ip
    1d14:	00000c84 	andeq	r0, r0, r4, lsl #25
    1d18:	84530001 	ldrbhi	r0, [r3], #-1
    1d1c:	9800000c 	stmdals	r0, {r2, r3}
    1d20:	0100000c 	tsteq	r0, ip
    1d24:	0c985300 	ldceq	3, cr5, [r8], {0}
    1d28:	0cdc0000 	ldcleq	0, cr0, [ip], {0}
    1d2c:	00010000 	andeq	r0, r1, r0
    1d30:	000cdc5a 	andeq	sp, ip, sl, asr ip
    1d34:	000ce400 	andeq	lr, ip, r0, lsl #8
    1d38:	52000100 	andpl	r0, r0, #0
	...
    1d44:	000006a4 	andeq	r0, r0, r4, lsr #13
    1d48:	000006a8 	andeq	r0, r0, r8, lsr #13
    1d4c:	a8570001 	ldmdage	r7, {r0}^
    1d50:	b8000006 	stmdalt	r0, {r1, r2}
    1d54:	03000006 	movweq	r0, #6
    1d58:	9fff0900 	svcls	0x00ff0900
    1d5c:	000006b8 	undefined instruction 0x000006b8
    1d60:	00000720 	andeq	r0, r0, r0, lsr #14
    1d64:	28570001 	ldmdacs	r7, {r0}^
    1d68:	e4000007 	str	r0, [r0], #-7
    1d6c:	0100000c 	tsteq	r0, ip
    1d70:	00005700 	andeq	r5, r0, r0, lsl #14
    1d74:	00000000 	andeq	r0, r0, r0
    1d78:	0c580000 	mraeq	r0, r8, acc0
    1d7c:	0c980000 	ldceq	0, cr0, [r8], {0}
    1d80:	00020000 	andeq	r0, r2, r0
    1d84:	0cdc7c79 	ldcleq	12, cr7, [ip], {121}	; 0x79
    1d88:	0ce40000 	stcleq	0, cr0, [r4]
    1d8c:	00010000 	andeq	r0, r1, r0
    1d90:	00000053 	andeq	r0, r0, r3, asr r0
    1d94:	00000000 	andeq	r0, r0, r0
    1d98:	000aa000 	andeq	sl, sl, r0
    1d9c:	000ab000 	andeq	fp, sl, r0
    1da0:	79000200 	stmdbvc	r0, {r9}
    1da4:	000ab07c 	andeq	fp, sl, ip, ror r0
    1da8:	000b1c00 	andeq	r1, fp, r0, lsl #24
    1dac:	5b000100 	blpl	21b4 <TEXT_BASE-0x33f7de4c>
	...
    1db8:	00000728 	andeq	r0, r0, r8, lsr #14
    1dbc:	0000072c 	andeq	r0, r0, ip, lsr #14
    1dc0:	2c560001 	mrrccs	0, 0, r0, r6, cr1
    1dc4:	8c000007 	stchi	0, cr0, [r0], {7}
    1dc8:	01000007 	tsteq	r0, r7
    1dcc:	078c5600 	streq	r5, [ip, r0, lsl #12]
    1dd0:	07940000 	ldreq	r0, [r4, r0]
    1dd4:	00010000 	andeq	r0, r1, r0
    1dd8:	00079456 	andeq	r9, r7, r6, asr r4
    1ddc:	00079c00 	andeq	r9, r7, r0, lsl #24
    1de0:	56000100 	strpl	r0, [r0], -r0, lsl #2
    1de4:	0000079c 	muleq	r0, ip, r7
    1de8:	000007a4 	andeq	r0, r0, r4, lsr #15
    1dec:	a4560001 	ldrbge	r0, [r6], #-1
    1df0:	bc000007 	stclt	0, cr0, [r0], {7}
    1df4:	01000009 	tsteq	r0, r9
    1df8:	09bc5600 	ldmibeq	ip!, {r9, sl, ip, lr}
    1dfc:	0ac00000 	beq	ff001e04 <MEM_CTL_BASE+0xb7001e04>
    1e00:	00010000 	andeq	r0, r1, r0
    1e04:	000b7456 	andeq	r7, fp, r6, asr r4
    1e08:	000b7c00 	andeq	r7, fp, r0, lsl #24
    1e0c:	56000100 	strpl	r0, [r0], -r0, lsl #2
    1e10:	00000b7c 	andeq	r0, r0, ip, ror fp
    1e14:	00000c08 	andeq	r0, r0, r8, lsl #24
    1e18:	08560001 	ldmdaeq	r6, {r0}^
    1e1c:	9c00000c 	stcls	0, cr0, [r0], {12}
    1e20:	0100000c 	tsteq	r0, ip
    1e24:	0c9c5600 	ldceq	6, cr5, [ip], {0}
    1e28:	0ce40000 	stcleq	0, cr0, [r4]
    1e2c:	00010000 	andeq	r0, r1, r0
    1e30:	00000056 	andeq	r0, r0, r6, asr r0
    1e34:	00000000 	andeq	r0, r0, r0
    1e38:	0007a800 	andeq	sl, r7, r0, lsl #16
    1e3c:	0007dc00 	andeq	sp, r7, r0, lsl #24
    1e40:	09000300 	stmdbeq	r0, {r8, r9}
    1e44:	07dc9fff 	undefined instruction 0x07dc9fff
    1e48:	09980000 	ldmibeq	r8, {}
    1e4c:	00010000 	andeq	r0, r1, r0
    1e50:	00099855 	andeq	r9, r9, r5, asr r8
    1e54:	0009ac00 	andeq	sl, r9, r0, lsl #24
    1e58:	09000300 	stmdbeq	r0, {r8, r9}
    1e5c:	09ac9fff 	stmibeq	ip!, {r0, r1, r2, r3, r4, r5, r6, r7, r8, r9, sl, fp, ip, pc}
    1e60:	09b80000 	ldmibeq	r8!, {}
    1e64:	00020000 	andeq	r0, r2, r0
    1e68:	09b87c79 	ldmibeq	r8!, {r0, r3, r4, r5, r6, sl, fp, ip, sp, lr}
    1e6c:	0acc0000 	beq	ff301e74 <MEM_CTL_BASE+0xb7301e74>
    1e70:	00010000 	andeq	r0, r1, r0
    1e74:	000acc55 	andeq	ip, sl, r5, asr ip
    1e78:	000ad800 	andeq	sp, sl, r0, lsl #16
    1e7c:	52000100 	andpl	r0, r0, #0
    1e80:	00000b10 	andeq	r0, r0, r0, lsl fp
    1e84:	00000b3c 	andeq	r0, r0, ip, lsr fp
    1e88:	3c550001 	mrrccc	0, 0, r0, r5, cr1
    1e8c:	4800000b 	stmdami	r0, {r0, r1, r3}
    1e90:	0300000b 	movweq	r0, #11
    1e94:	9f7f7500 	svcls	0x007f7500
    1e98:	00000b74 	andeq	r0, r0, r4, ror fp
    1e9c:	00000b78 	andeq	r0, r0, r8, ror fp
    1ea0:	78550001 	ldmdavc	r5, {r0}^
    1ea4:	8000000b 	andhi	r0, r0, fp
    1ea8:	0200000b 	andeq	r0, r0, #11
    1eac:	809f3800 	addshi	r3, pc, r0, lsl #16
    1eb0:	1c00000b 	stcne	0, cr0, [r0], {11}
    1eb4:	0100000c 	tsteq	r0, ip
    1eb8:	0c1c5500 	cfldr32eq	mvfx5, [ip], {0}
    1ebc:	0c340000 	ldceq	0, cr0, [r4]
    1ec0:	00010000 	andeq	r0, r1, r0
    1ec4:	000c5452 	andeq	r5, ip, r2, asr r4
    1ec8:	000c6800 	andeq	r6, ip, r0, lsl #16
    1ecc:	55000100 	strpl	r0, [r0, #-256]	; 0x100
    1ed0:	00000c68 	andeq	r0, r0, r8, ror #24
    1ed4:	00000c74 	andeq	r0, r0, r4, ror ip
    1ed8:	7f750003 	svcvc	0x00750003
    1edc:	000c989f 	muleq	ip, pc, r8
    1ee0:	000cdc00 	andeq	sp, ip, r0, lsl #24
    1ee4:	55000100 	strpl	r0, [r0, #-256]	; 0x100
    1ee8:	00000cdc 	ldrdeq	r0, [r0], -ip
    1eec:	00000ce4 	andeq	r0, r0, r4, ror #25
    1ef0:	7f750003 	svcvc	0x00750003
    1ef4:	0000009f 	muleq	r0, pc, r0
    1ef8:	00000000 	andeq	r0, r0, r0
    1efc:	0007dc00 	andeq	sp, r7, r0, lsl #24
    1f00:	0007e800 	andeq	lr, r7, r0, lsl #16
    1f04:	09000300 	stmdbeq	r0, {r8, r9}
    1f08:	07e89fff 	undefined instruction 0x07e89fff
    1f0c:	09980000 	ldmibeq	r8, {}
    1f10:	00010000 	andeq	r0, r1, r0
    1f14:	0009bc5c 	andeq	fp, r9, ip, asr ip
    1f18:	000a0c00 	andeq	r0, sl, r0, lsl #24
    1f1c:	09000300 	stmdbeq	r0, {r8, r9}
    1f20:	0a0c9fff 	beq	329f24 <TEXT_BASE-0x33c560dc>
    1f24:	0a180000 	beq	601f2c <TEXT_BASE-0x3397e0d4>
    1f28:	00010000 	andeq	r0, r1, r0
    1f2c:	000a205c 	andeq	r2, sl, ip, asr r0
    1f30:	000a2c00 	andeq	r2, sl, r0, lsl #24
    1f34:	5c000100 	stfpls	f0, [r0], {0}
    1f38:	00000a2c 	andeq	r0, r0, ip, lsr #20
    1f3c:	00000a40 	andeq	r0, r0, r0, asr #20
    1f40:	ff090003 	undefined instruction 0xff090003
    1f44:	000a409f 	muleq	sl, pc, r0
    1f48:	000a5400 	andeq	r5, sl, r0, lsl #8
    1f4c:	79000200 	stmdbvc	r0, {r9}
    1f50:	000a547c 	andeq	r5, sl, ip, ror r4
    1f54:	000a9300 	andeq	r9, sl, r0, lsl #6
    1f58:	5c000100 	stfpls	f0, [r0], {0}
    1f5c:	00000a9c 	muleq	r0, ip, sl
    1f60:	00000abb 	undefined instruction 0x00000abb
    1f64:	745c0001 	ldrbvc	r0, [ip], #-1
    1f68:	e400000b 	str	r0, [r0], #-11
    1f6c:	0100000c 	tsteq	r0, ip
    1f70:	00005c00 	andeq	r5, r0, r0, lsl #24
    1f74:	00000000 	andeq	r0, r0, r0
    1f78:	07e80000 	strbeq	r0, [r8, r0]!
    1f7c:	08100000 	ldmdaeq	r0, {}
    1f80:	00030000 	andeq	r0, r3, r0
    1f84:	109fff09 	addsne	pc, pc, r9, lsl #30
    1f88:	70000008 	andvc	r0, r0, r8
    1f8c:	01000009 	tsteq	r0, r9
    1f90:	09705300 	ldmdbeq	r0!, {r8, r9, ip, lr}^
    1f94:	097c0000 	ldmdbeq	ip!, {}^
    1f98:	00030000 	andeq	r0, r3, r0
    1f9c:	7c9fff09 	ldcvc	15, cr15, [pc], {9}
    1fa0:	80000009 	andhi	r0, r0, r9
    1fa4:	01000009 	tsteq	r0, r9
    1fa8:	09805200 	stmibeq	r0, {r9, ip, lr}
    1fac:	098c0000 	stmibeq	ip, {}
    1fb0:	00010000 	andeq	r0, r1, r0
    1fb4:	00098c53 	andeq	r8, r9, r3, asr ip
    1fb8:	00099800 	andeq	r9, r9, r0, lsl #16
    1fbc:	08000300 	stmdaeq	r0, {r8, r9}
    1fc0:	0a209f4c 	beq	829cf8 <TEXT_BASE-0x33756308>
    1fc4:	0a240000 	beq	901fcc <TEXT_BASE-0x3367e034>
    1fc8:	00030000 	andeq	r0, r3, r0
    1fcc:	549fff09 	ldrpl	pc, [pc], #3849	; 1fd4 <TEXT_BASE-0x33f7e02c>
    1fd0:	8400000a 	strhi	r0, [r0], #-10
    1fd4:	0100000a 	tsteq	r0, sl
    1fd8:	0a9c5300 	beq	fe716be0 <MEM_CTL_BASE+0xb6716be0>
    1fdc:	0aa40000 	beq	fe901fe4 <MEM_CTL_BASE+0xb6901fe4>
    1fe0:	00010000 	andeq	r0, r1, r0
    1fe4:	000b7453 	andeq	r7, fp, r3, asr r4
    1fe8:	000b9000 	andeq	r9, fp, r0
    1fec:	53000100 	movwpl	r0, #256	; 0x100
    1ff0:	00000b98 	muleq	r0, r8, fp
    1ff4:	00000bcc 	andeq	r0, r0, ip, asr #23
    1ff8:	f0530001 	undefined instruction 0xf0530001
    1ffc:	f800000b 	undefined instruction 0xf800000b
    2000:	0100000b 	tsteq	r0, fp
    2004:	0c045300 	stceq	3, cr5, [r4], {0}
    2008:	0c2c0000 	stceq	0, cr0, [ip]
    200c:	00010000 	andeq	r0, r1, r0
    2010:	000c9853 	andeq	r9, ip, r3, asr r8
    2014:	000cdc00 	andeq	sp, ip, r0, lsl #24
    2018:	53000100 	movwpl	r0, #256	; 0x100
	...
    2024:	000007b4 	undefined instruction 0x000007b4
    2028:	000007bc 	undefined instruction 0x000007bc
    202c:	9f300002 	svcls	0x00300002
    2030:	000007d4 	ldrdeq	r0, [r0], -r4
    2034:	000007dc 	ldrdeq	r0, [r0], -ip
    2038:	00550001 	subseq	r0, r5, r1
    203c:	00000000 	andeq	r0, r0, r0
    2040:	08000000 	stmdaeq	r0, {}
    2044:	1800000a 	stmdane	r0, {r1, r3}
    2048:	0100000a 	tsteq	r0, sl
    204c:	00005c00 	andeq	r5, r0, r0, lsl #24
    2050:	00000000 	andeq	r0, r0, r0
    2054:	0bf00000 	bleq	ffc0205c <MEM_CTL_BASE+0xb7c0205c>
    2058:	0bf80000 	bleq	ffe02060 <MEM_CTL_BASE+0xb7e02060>
    205c:	00020000 	andeq	r0, r2, r0
    2060:	0bf87c79 	bleq	ffe2124c <MEM_CTL_BASE+0xb7e2124c>
    2064:	0c040000 	stceq	0, cr0, [r4], {0}
    2068:	00020000 	andeq	r0, r2, r0
    206c:	00007879 	andeq	r7, r0, r9, ror r8
    2070:	00000000 	andeq	r0, r0, r0
    2074:	0d040000 	stceq	0, cr0, [r4]
    2078:	0d080000 	stceq	0, cr0, [r8]
    207c:	00020000 	andeq	r0, r2, r0
    2080:	0d08007d 	stceq	0, cr0, [r8, #-500]	; 0xfffffe0c
    2084:	0d1c0000 	ldceq	0, cr0, [ip]
    2088:	00020000 	andeq	r0, r2, r0
    208c:	0000087d 	andeq	r0, r0, sp, ror r8
    2090:	00000000 	andeq	r0, r0, r0
    2094:	0d040000 	stceq	0, cr0, [r4]
    2098:	0d0f0000 	stceq	0, cr0, [pc]
    209c:	00010000 	andeq	r0, r1, r0
    20a0:	00000050 	andeq	r0, r0, r0, asr r0
    20a4:	00000000 	andeq	r0, r0, r0
    20a8:	000d0400 	andeq	r0, sp, r0, lsl #8
    20ac:	000d0f00 	andeq	r0, sp, r0, lsl #30
    20b0:	51000100 	tstpl	r0, r0, lsl #2
    20b4:	00000d0f 	andeq	r0, r0, pc, lsl #26
    20b8:	00000d1c 	andeq	r0, r0, ip, lsl sp
    20bc:	00540001 	subseq	r0, r4, r1
    20c0:	00000000 	andeq	r0, r0, r0
    20c4:	04000000 	streq	r0, [r0]
    20c8:	0f00000d 	svceq	0x0000000d
    20cc:	0100000d 	tsteq	r0, sp
    20d0:	00005200 	andeq	r5, r0, r0, lsl #4
    20d4:	00000000 	andeq	r0, r0, r0
    20d8:	0d040000 	stceq	0, cr0, [r4]
    20dc:	0d0f0000 	stceq	0, cr0, [pc]
    20e0:	00010000 	andeq	r0, r1, r0
    20e4:	00000053 	andeq	r0, r0, r3, asr r0
    20e8:	00000000 	andeq	r0, r0, r0
    20ec:	000d1000 	andeq	r1, sp, r0
    20f0:	000d1800 	andeq	r1, sp, r0, lsl #16
    20f4:	50000100 	andpl	r0, r0, r0, lsl #2
	...
    2100:	00000d1c 	andeq	r0, r0, ip, lsl sp
    2104:	00000d20 	andeq	r0, r0, r0, lsr #26
    2108:	007d0002 	rsbseq	r0, sp, r2
    210c:	00000d20 	andeq	r0, r0, r0, lsr #26
    2110:	00000d24 	andeq	r0, r0, r4, lsr #26
    2114:	087d0002 	ldmdaeq	sp!, {r1}^
    2118:	00000d24 	andeq	r0, r0, r4, lsr #26
    211c:	00000d3c 	andeq	r0, r0, ip, lsr sp
    2120:	107d0002 	rsbsne	r0, sp, r2
	...
    212c:	00000d1c 	andeq	r0, r0, ip, lsl sp
    2130:	00000d2f 	andeq	r0, r0, pc, lsr #26
    2134:	00500001 	subseq	r0, r0, r1
    2138:	00000000 	andeq	r0, r0, r0
    213c:	1c000000 	stcne	0, cr0, [r0], {0}
    2140:	2f00000d 	svccs	0x0000000d
    2144:	0100000d 	tsteq	r0, sp
    2148:	00005100 	andeq	r5, r0, r0, lsl #2
    214c:	00000000 	andeq	r0, r0, r0
    2150:	0d3c0000 	ldceq	0, cr0, [ip]
    2154:	0d400000 	stcleq	0, cr0, [r0]
    2158:	00020000 	andeq	r0, r2, r0
    215c:	0d40007d 	stcleq	0, cr0, [r0, #-500]	; 0xfffffe0c
    2160:	0d440000 	stcleq	0, cr0, [r4]
    2164:	00020000 	andeq	r0, r2, r0
    2168:	0d44087d 	stcleq	8, cr0, [r4, #-500]	; 0xfffffe0c
    216c:	0d680000 	stcleq	0, cr0, [r8]
    2170:	00020000 	andeq	r0, r2, r0
    2174:	0000107d 	andeq	r1, r0, sp, ror r0
    2178:	00000000 	andeq	r0, r0, r0
    217c:	0d3c0000 	ldceq	0, cr0, [ip]
    2180:	0d530000 	ldcleq	0, cr0, [r3]
    2184:	00010000 	andeq	r0, r1, r0
    2188:	00000050 	andeq	r0, r0, r0, asr r0
    218c:	00000000 	andeq	r0, r0, r0
    2190:	000d3c00 	andeq	r3, sp, r0, lsl #24
    2194:	000d5300 	andeq	r5, sp, r0, lsl #6
    2198:	51000100 	tstpl	r0, r0, lsl #2
    219c:	00000d53 	andeq	r0, r0, r3, asr sp
    21a0:	00000d68 	andeq	r0, r0, r8, ror #26
    21a4:	00540001 	subseq	r0, r4, r1
    21a8:	00000000 	andeq	r0, r0, r0
    21ac:	54000000 	strpl	r0, [r0]
    21b0:	5c00000d 	stcpl	0, cr0, [r0], {13}
    21b4:	0100000d 	tsteq	r0, sp
    21b8:	00005000 	andeq	r5, r0, r0
    21bc:	00000000 	andeq	r0, r0, r0
    21c0:	0d680000 	stcleq	0, cr0, [r8]
    21c4:	0d740000 	ldcleq	0, cr0, [r4]
    21c8:	00010000 	andeq	r0, r1, r0
    21cc:	000d7451 	andeq	r7, sp, r1, asr r4
    21d0:	000d7c00 	andeq	r7, sp, r0, lsl #24
    21d4:	5c000100 	stfpls	f0, [r0], {0}
	...
    21e0:	00000d68 	andeq	r0, r0, r8, ror #26
    21e4:	00000d78 	andeq	r0, r0, r8, ror sp
    21e8:	78520001 	ldmdavc	r2, {r0}^
    21ec:	7c00000d 	stcvc	0, cr0, [r0], {13}
    21f0:	0100000d 	tsteq	r0, sp
    21f4:	00005300 	andeq	r5, r0, r0, lsl #6
    21f8:	00000000 	andeq	r0, r0, r0
    21fc:	0d7c0000 	ldcleq	0, cr0, [ip]
    2200:	0d800000 	stceq	0, cr0, [r0]
    2204:	00020000 	andeq	r0, r2, r0
    2208:	0d80007d 	stceq	0, cr0, [r0, #500]	; 0x1f4
    220c:	0d840000 	stceq	0, cr0, [r4]
    2210:	00020000 	andeq	r0, r2, r0
    2214:	0d840c7d 	stceq	12, cr0, [r4, #500]	; 0x1f4
    2218:	0d9c0000 	ldceq	0, cr0, [ip]
    221c:	00020000 	andeq	r0, r2, r0
    2220:	0000107d 	andeq	r1, r0, sp, ror r0
    2224:	00000000 	andeq	r0, r0, r0
    2228:	0d7c0000 	ldcleq	0, cr0, [ip]
    222c:	0d8f0000 	stceq	0, cr0, [pc]
    2230:	00010000 	andeq	r0, r1, r0
    2234:	00000050 	andeq	r0, r0, r0, asr r0
    2238:	00000000 	andeq	r0, r0, r0
    223c:	000d9c00 	andeq	r9, sp, r0, lsl #24
    2240:	000da000 	andeq	sl, sp, r0
    2244:	7d000200 	sfmvc	f0, 4, [r0]	; (stcvc 2, cr0, [r0])
    2248:	000da000 	andeq	sl, sp, r0
    224c:	000db400 	andeq	fp, sp, r0, lsl #8
    2250:	7d000200 	sfmvc	f0, 4, [r0]	; (stcvc 2, cr0, [r0])
    2254:	000db424 	andeq	fp, sp, r4, lsr #8
    2258:	0014a800 	andseq	sl, r4, r0, lsl #16
    225c:	7d000200 	sfmvc	f0, 4, [r0]	; (stcvc 2, cr0, [r0])
    2260:	00000038 	andeq	r0, r0, r8, lsr r0
    2264:	00000000 	andeq	r0, r0, r0
    2268:	000d9c00 	andeq	r9, sp, r0, lsl #24
    226c:	000dc400 	andeq	ip, sp, r0, lsl #8
    2270:	50000100 	andpl	r0, r0, r0, lsl #2
    2274:	00000dc4 	andeq	r0, r0, r4, asr #27
    2278:	000014a8 	andeq	r1, r0, r8, lsr #9
    227c:	005a0001 	subseq	r0, sl, r1
    2280:	00000000 	andeq	r0, r0, r0
    2284:	9c000000 	stcls	0, cr0, [r0], {0}
    2288:	b000000d 	andlt	r0, r0, sp
    228c:	0100000d 	tsteq	r0, sp
    2290:	0db05100 	ldfeqs	f5, [r0]
    2294:	0dc40000 	stcleq	0, cr0, [r4]
    2298:	00010000 	andeq	r0, r1, r0
    229c:	000dc454 	andeq	ip, sp, r4, asr r4
    22a0:	000df000 	andeq	pc, sp, r0
    22a4:	54000100 	strpl	r0, [r0], #-256	; 0x100
    22a8:	00000df0 	strdeq	r0, [r0], -r0
    22ac:	00000df8 	strdeq	r0, [r0], -r8
    22b0:	f8530001 	undefined instruction 0xf8530001
    22b4:	3800000d 	stmdacc	r0, {r0, r2, r3}
    22b8:	0100000e 	tsteq	r0, lr
    22bc:	0e385400 	cfabsseq	mvf5, mvf8
    22c0:	0e440000 	cdpeq	0, 4, cr0, cr4, cr0, {0}
    22c4:	00030000 	andeq	r0, r3, r0
    22c8:	509f0174 	addspl	r0, pc, r4, ror r1
    22cc:	6000000e 	andvs	r0, r0, lr
    22d0:	0100000e 	tsteq	r0, lr
    22d4:	0e605400 	cdpeq	4, 6, cr5, cr0, cr0, {0}
    22d8:	0e7c0000 	cdpeq	0, 7, cr0, cr12, cr0, {0}
    22dc:	00030000 	andeq	r0, r3, r0
    22e0:	9c9f0174 	ldflss	f0, [pc], {116}	; 0x74
    22e4:	b000000e 	andlt	r0, r0, lr
    22e8:	0100000e 	tsteq	r0, lr
    22ec:	0eb05700 	cdpeq	7, 11, cr5, cr0, cr0, {0}
    22f0:	0eb80000 	cdpeq	0, 11, cr0, cr8, cr0, {0}
    22f4:	00030000 	andeq	r0, r3, r0
    22f8:	b89f7f77 	ldmlt	pc, {r0, r1, r2, r4, r5, r6, r8, r9, sl, fp, ip, sp, lr}
    22fc:	d400000e 	strle	r0, [r0], #-14
    2300:	0100000e 	tsteq	r0, lr
    2304:	0ed45700 	cdpeq	7, 13, cr5, cr4, cr0, {0}
    2308:	10300000 	eorsne	r0, r0, r0
    230c:	00010000 	andeq	r0, r1, r0
    2310:	00103054 	andseq	r3, r0, r4, asr r0
    2314:	00105000 	andseq	r5, r0, r0
    2318:	57000100 	strpl	r0, [r0, -r0, lsl #2]
    231c:	00001050 	andeq	r1, r0, r0, asr r0
    2320:	00001058 	andeq	r1, r0, r8, asr r0
    2324:	01740003 	cmneq	r4, r3
    2328:	0010589f 	mulseq	r0, pc, r8
    232c:	00105c00 	andseq	r5, r0, r0, lsl #24
    2330:	54000100 	strpl	r0, [r0], #-256	; 0x100
    2334:	0000105c 	andeq	r1, r0, ip, asr r0
    2338:	00001074 	andeq	r1, r0, r4, ror r0
    233c:	74570001 	ldrbvc	r0, [r7], #-1
    2340:	7c000010 	stcvc	0, cr0, [r0], {16}
    2344:	01000010 	tsteq	r0, r0, lsl r0
    2348:	10805400 	addne	r5, r0, r0, lsl #8
    234c:	10840000 	addne	r0, r4, r0
    2350:	00010000 	andeq	r0, r1, r0
    2354:	00108453 	andseq	r8, r0, r3, asr r4
    2358:	00109000 	andseq	r9, r0, r0
    235c:	54000100 	strpl	r0, [r0], #-256	; 0x100
    2360:	000010d0 	ldrdeq	r1, [r0], -r0
    2364:	00001484 	andeq	r1, r0, r4, lsl #9
    2368:	84540001 	ldrbhi	r0, [r4], #-1
    236c:	8c000014 	stchi	0, cr0, [r0], {20}
    2370:	03000014 	movweq	r0, #20
    2374:	9f7f7700 	svcls	0x007f7700
    2378:	00001498 	muleq	r0, r8, r4
    237c:	0000149c 	muleq	r0, ip, r4
    2380:	00570001 	subseq	r0, r7, r1
    2384:	00000000 	andeq	r0, r0, r0
    2388:	9c000000 	stcls	0, cr0, [r0], {0}
    238c:	c400000d 	strgt	r0, [r0], #-13
    2390:	0100000d 	tsteq	r0, sp
    2394:	0dc45200 	sfmeq	f5, 2, [r4]	; (stcleq 2, cr5, [r4])
    2398:	12640000 	rsbne	r0, r4, #0
    239c:	00010000 	andeq	r0, r1, r0
    23a0:	00126458 	andseq	r6, r2, r8, asr r4
    23a4:	00126c00 	andseq	r6, r2, r0, lsl #24
    23a8:	78000300 	stmdavc	r0, {r8, r9}
    23ac:	126c9f7c 	rsbne	r9, ip, #496	; 0x1f0
    23b0:	128c0000 	addne	r0, ip, #0
    23b4:	00010000 	andeq	r0, r1, r0
    23b8:	00128c58 	andseq	r8, r2, r8, asr ip
    23bc:	0012b400 	andseq	fp, r2, r0, lsl #8
    23c0:	78000300 	stmdavc	r0, {r8, r9}
    23c4:	12c09f7c 	sbcne	r9, r0, #496	; 0x1f0
    23c8:	12d40000 	sbcsne	r0, r4, #0
    23cc:	00010000 	andeq	r0, r1, r0
    23d0:	0012d458 	andseq	sp, r2, r8, asr r4
    23d4:	0012e400 	andseq	lr, r2, r0, lsl #8
    23d8:	78000300 	stmdavc	r0, {r8, r9}
    23dc:	12e49f7c 	rscne	r9, r4, #496	; 0x1f0
    23e0:	13080000 	movwne	r0, #32768	; 0x8000
    23e4:	00010000 	andeq	r0, r1, r0
    23e8:	00130858 	andseq	r0, r3, r8, asr r8
    23ec:	00137c00 	andseq	r7, r3, r0, lsl #24
    23f0:	78000300 	stmdavc	r0, {r8, r9}
    23f4:	137c9f7c 	cmnne	ip, #496	; 0x1f0
    23f8:	13a40000 	undefined instruction 0x13a40000
    23fc:	00010000 	andeq	r0, r1, r0
    2400:	0013a458 	andseq	sl, r3, r8, asr r4
    2404:	0013b000 	andseq	fp, r3, r0
    2408:	78000300 	stmdavc	r0, {r8, r9}
    240c:	13b09f7c 	movsne	r9, #496	; 0x1f0
    2410:	13c40000 	bicne	r0, r4, #0
    2414:	00010000 	andeq	r0, r1, r0
    2418:	0013c458 	andseq	ip, r3, r8, asr r4
    241c:	0013d000 	andseq	sp, r3, r0
    2420:	78000300 	stmdavc	r0, {r8, r9}
    2424:	13d09f7c 	bicsne	r9, r0, #496	; 0x1f0
    2428:	13e40000 	mvnne	r0, #0
    242c:	00010000 	andeq	r0, r1, r0
    2430:	0013e458 	andseq	lr, r3, r8, asr r4
    2434:	0013f000 	andseq	pc, r3, r0
    2438:	78000300 	stmdavc	r0, {r8, r9}
    243c:	13f09f7c 	mvnsne	r9, #496	; 0x1f0
    2440:	14040000 	strne	r0, [r4]
    2444:	00010000 	andeq	r0, r1, r0
    2448:	00140458 	andseq	r0, r4, r8, asr r4
    244c:	00141000 	andseq	r1, r4, r0
    2450:	78000300 	stmdavc	r0, {r8, r9}
    2454:	14109f7c 	ldrne	r9, [r0], #-3964	; 0xf7c
    2458:	14400000 	strbne	r0, [r0]
    245c:	00010000 	andeq	r0, r1, r0
    2460:	00144058 	andseq	r4, r4, r8, asr r0
    2464:	00144c00 	andseq	r4, r4, r0, lsl #24
    2468:	78000300 	stmdavc	r0, {r8, r9}
    246c:	144c9f7c 	strbne	r9, [ip], #-3964	; 0xf7c
    2470:	14540000 	ldrbne	r0, [r4]
    2474:	00010000 	andeq	r0, r1, r0
    2478:	00145458 	andseq	r5, r4, r8, asr r4
    247c:	00146000 	andseq	r6, r4, r0
    2480:	78000300 	stmdavc	r0, {r8, r9}
    2484:	14609f7c 	strbtne	r9, [r0], #-3964	; 0xf7c
    2488:	14680000 	strbtne	r0, [r8]
    248c:	00010000 	andeq	r0, r1, r0
    2490:	00146858 	andseq	r6, r4, r8, asr r8
    2494:	00148400 	andseq	r8, r4, r0, lsl #8
    2498:	78000300 	stmdavc	r0, {r8, r9}
    249c:	14849f7c 	strne	r9, [r4], #3964	; 0xf7c
    24a0:	14a80000 	strtne	r0, [r8]
    24a4:	00010000 	andeq	r0, r1, r0
    24a8:	00000058 	andeq	r0, r0, r8, asr r0
    24ac:	00000000 	andeq	r0, r0, r0
    24b0:	000da800 	andeq	sl, sp, r0, lsl #16
    24b4:	000dc400 	andeq	ip, sp, r0, lsl #8
    24b8:	50000100 	andpl	r0, r0, r0, lsl #2
    24bc:	00000dc4 	andeq	r0, r0, r4, asr #27
    24c0:	00000e14 	andeq	r0, r0, r4, lsl lr
    24c4:	14500001 	ldrbne	r0, [r0], #-1
    24c8:	1800000e 	stmdane	r0, {r1, r2, r3}
    24cc:	0100000e 	tsteq	r0, lr
    24d0:	0e185300 	cdpeq	3, 1, cr5, cr8, cr0, {0}
    24d4:	0e380000 	cdpeq	0, 3, cr0, cr8, cr0, {0}
    24d8:	00010000 	andeq	r0, r1, r0
    24dc:	000e3850 	andeq	r3, lr, r0, asr r8
    24e0:	000e4400 	andeq	r4, lr, r0, lsl #8
    24e4:	70000300 	andvc	r0, r0, r0, lsl #6
    24e8:	0e509f01 	cdpeq	15, 5, cr9, cr0, cr1, {0}
    24ec:	10500000 	subsne	r0, r0, r0
    24f0:	00010000 	andeq	r0, r1, r0
    24f4:	00105050 	andseq	r5, r0, r0, asr r0
    24f8:	00105400 	andseq	r5, r0, r0, lsl #8
    24fc:	70000300 	andvc	r0, r0, r0, lsl #6
    2500:	10549f01 	subsne	r9, r4, r1, lsl #30
    2504:	10bc0000 	adcsne	r0, ip, r0
    2508:	00010000 	andeq	r0, r1, r0
    250c:	0010bc50 	andseq	fp, r0, r0, asr ip
    2510:	0010c000 	andseq	ip, r0, r0
    2514:	53000100 	movwpl	r0, #256	; 0x100
    2518:	000010c0 	andeq	r1, r0, r0, asr #1
    251c:	000010d0 	ldrdeq	r1, [r0], -r0
    2520:	d0500001 	subsle	r0, r0, r1
    2524:	dc000010 	stcle	0, cr0, [r0], {16}
    2528:	03000010 	movweq	r0, #16
    252c:	9f017000 	svcls	0x00017000
    2530:	000010dc 	ldrdeq	r1, [r0], -ip
    2534:	00001108 	andeq	r1, r0, r8, lsl #2
    2538:	08500001 	ldmdaeq	r0, {r0}^
    253c:	0c000011 	stceq	0, cr0, [r0], {17}
    2540:	01000011 	tsteq	r0, r1, lsl r0
    2544:	110c5100 	tstne	ip, r0, lsl #2
    2548:	12670000 	rsbne	r0, r7, #0
    254c:	00010000 	andeq	r0, r1, r0
    2550:	00128450 	andseq	r8, r2, r0, asr r4
    2554:	00129400 	andseq	r9, r2, r0, lsl #8
    2558:	50000100 	andpl	r0, r0, r0, lsl #2
    255c:	000012a4 	andeq	r1, r0, r4, lsr #5
    2560:	000012ac 	andeq	r1, r0, ip, lsr #5
    2564:	ac510001 	mrrcge	0, 0, r0, r1, cr1
    2568:	10000012 	andne	r0, r0, r2, lsl r0
    256c:	01000013 	tsteq	r0, r3, lsl r0
    2570:	13145000 	tstne	r4, #0
    2574:	13180000 	tstne	r8, #0
    2578:	00010000 	andeq	r0, r1, r0
    257c:	00131850 	andseq	r1, r3, r0, asr r8
    2580:	00134000 	andseq	r4, r3, r0
    2584:	5c000100 	stfpls	f0, [r0], {0}
    2588:	00001340 	andeq	r1, r0, r0, asr #6
    258c:	00001354 	andeq	r1, r0, r4, asr r3
    2590:	64500001 	ldrbvs	r0, [r0], #-1
    2594:	70000013 	andvc	r0, r0, r3, lsl r0
    2598:	06000013 	undefined instruction 0x06000013
    259c:	71007c00 	tstvc	r0, r0, lsl #24
    25a0:	709f2200 	addsvc	r2, pc, r0, lsl #4
    25a4:	a7000013 	smladge	r0, r3, r0, r0
    25a8:	01000013 	tsteq	r0, r3, lsl r0
    25ac:	13b05000 	movsne	r5, #0
    25b0:	13c70000 	bicne	r0, r7, #0
    25b4:	00010000 	andeq	r0, r1, r0
    25b8:	0013d050 	andseq	sp, r3, r0, asr r0
    25bc:	0013e700 	andseq	lr, r3, r0, lsl #14
    25c0:	50000100 	andpl	r0, r0, r0, lsl #2
    25c4:	000013f0 	strdeq	r1, [r0], -r0
    25c8:	00001407 	andeq	r1, r0, r7, lsl #8
    25cc:	10500001 	subsne	r0, r0, r1
    25d0:	43000014 	movwmi	r0, #20
    25d4:	01000014 	tsteq	r0, r4, lsl r0
    25d8:	144c5000 	strbne	r5, [ip]
    25dc:	14570000 	ldrbne	r0, [r7]
    25e0:	00010000 	andeq	r0, r1, r0
    25e4:	00146050 	andseq	r6, r4, r0, asr r0
    25e8:	00146b00 	andseq	r6, r4, r0, lsl #22
    25ec:	50000100 	andpl	r0, r0, r0, lsl #2
    25f0:	00001474 	andeq	r1, r0, r4, ror r4
    25f4:	0000147c 	andeq	r1, r0, ip, ror r4
    25f8:	7c500001 	mrrcvc	0, 0, r0, r0, cr1
    25fc:	84000014 	strhi	r0, [r0], #-20
    2600:	01000014 	tsteq	r0, r4, lsl r0
    2604:	14845c00 	strne	r5, [r4], #3072	; 0xc00
    2608:	14a80000 	strtne	r0, [r8]
    260c:	00010000 	andeq	r0, r1, r0
    2610:	00000050 	andeq	r0, r0, r0, asr r0
    2614:	00000000 	andeq	r0, r0, r0
    2618:	00111c00 	andseq	r1, r1, r0, lsl #24
    261c:	00113000 	andseq	r3, r1, r0
    2620:	53000100 	movwpl	r0, #256	; 0x100
    2624:	00001130 	andeq	r1, r0, r0, lsr r1
    2628:	0000116c 	andeq	r1, r0, ip, ror #2
    262c:	10530001 	subsne	r0, r3, r1
    2630:	1c000014 	stcne	0, cr0, [r0], {20}
    2634:	01000014 	tsteq	r0, r4, lsl r0
    2638:	14285300 	strtne	r5, [r8], #-768	; 0x300
    263c:	142c0000 	strtne	r0, [ip]
    2640:	00010000 	andeq	r0, r1, r0
    2644:	00000053 	andeq	r0, r0, r3, asr r0
    2648:	00000000 	andeq	r0, r0, r0
    264c:	000da800 	andeq	sl, sp, r0, lsl #16
    2650:	000dc400 	andeq	ip, sp, r0, lsl #8
    2654:	30000200 	andcc	r0, r0, r0, lsl #4
    2658:	000dc49f 	muleq	sp, pc, r4
    265c:	000e4400 	andeq	r4, lr, r0, lsl #8
    2660:	56000100 	strpl	r0, [r0], -r0, lsl #2
    2664:	00000e50 	andeq	r0, r0, r0, asr lr
    2668:	00001104 	andeq	r1, r0, r4, lsl #2
    266c:	74560001 	ldrbvc	r0, [r6], #-1
    2670:	b8000012 	stmdalt	r0, {r1, r4}
    2674:	01000012 	tsteq	r0, r2, lsl r0
    2678:	12b85600 	adcsne	r5, r8, #0
    267c:	13400000 	movtne	r0, #0
    2680:	00010000 	andeq	r0, r1, r0
    2684:	00134056 	andseq	r4, r3, r6, asr r0
    2688:	00137000 	andseq	r7, r3, r0
    268c:	57000100 	strpl	r0, [r0, -r0, lsl #2]
    2690:	00001370 	andeq	r1, r0, r0, ror r3
    2694:	0000139c 	muleq	r0, ip, r3
    2698:	74560001 	ldrbvc	r0, [r6], #-1
    269c:	a8000014 	stmdage	r0, {r2, r4}
    26a0:	01000014 	tsteq	r0, r4, lsl r0
    26a4:	00005600 	andeq	r5, r0, r0, lsl #12
    26a8:	00000000 	andeq	r0, r0, r0
    26ac:	0e9c0000 	cdpeq	0, 9, cr0, cr12, cr0, {0}
    26b0:	0eac0000 	cdpeq	0, 10, cr0, cr12, cr0, {0}
    26b4:	00030000 	andeq	r0, r3, r0
    26b8:	b89fff09 	ldmlt	pc, {r0, r3, r8, r9, sl, fp, ip, sp, lr, pc}
    26bc:	3000000e 	andcc	r0, r0, lr
    26c0:	01000010 	tsteq	r0, r0, lsl r0
    26c4:	10305c00 	eorsne	r5, r0, r0, lsl #24
    26c8:	10500000 	subsne	r0, r0, r0
    26cc:	00030000 	andeq	r0, r3, r0
    26d0:	d09fff09 	addsle	pc, pc, r9, lsl #30
    26d4:	78000010 	stmdavc	r0, {r4}
    26d8:	01000011 	tsteq	r0, r1, lsl r0
    26dc:	11785c00 	cmnne	r8, r0, lsl #24
    26e0:	12670000 	rsbne	r0, r7, #0
    26e4:	00040000 	andeq	r0, r4, r0
    26e8:	9f00c87c 	svcls	0x0000c87c
    26ec:	00001284 	andeq	r1, r0, r4, lsl #5
    26f0:	0000128c 	andeq	r1, r0, ip, lsl #5
    26f4:	c05c0001 	subsgt	r0, ip, r1
    26f8:	10000012 	andne	r0, r0, r2, lsl r0
    26fc:	01000013 	tsteq	r0, r3, lsl r0
    2700:	137c5c00 	cmnne	ip, #0
    2704:	139c0000 	orrsne	r0, ip, #0
    2708:	00010000 	andeq	r0, r1, r0
    270c:	00139c5c 	andseq	r9, r3, ip, asr ip
    2710:	0013a700 	andseq	sl, r3, r0, lsl #14
    2714:	7c000400 	cfstrsvc	mvf0, [r0], {0}
    2718:	b09f00c8 	addslt	r0, pc, r8, asr #1
    271c:	c7000013 	smladgt	r0, r3, r0, r0
    2720:	04000013 	streq	r0, [r0], #-19
    2724:	00c87c00 	sbceq	r7, r8, r0, lsl #24
    2728:	0013d09f 	mulseq	r3, pc, r0
    272c:	0013e700 	andseq	lr, r3, r0, lsl #14
    2730:	7c000400 	cfstrsvc	mvf0, [r0], {0}
    2734:	f09f00c8 	undefined instruction 0xf09f00c8
    2738:	07000013 	smladeq	r0, r3, r0, r0
    273c:	04000014 	streq	r0, [r0], #-20
    2740:	00c87c00 	sbceq	r7, r8, r0, lsl #24
    2744:	0014109f 	mulseq	r4, pc, r0
    2748:	00143800 	andseq	r3, r4, r0, lsl #16
    274c:	5c000100 	stfpls	f0, [r0], {0}
    2750:	00001438 	andeq	r1, r0, r8, lsr r4
    2754:	00001443 	andeq	r1, r0, r3, asr #8
    2758:	c87c0004 	ldmdagt	ip!, {r2}^
    275c:	144c9f00 	strbne	r9, [ip], #-3840	; 0xf00
    2760:	14570000 	ldrbne	r0, [r7]
    2764:	00040000 	andeq	r0, r4, r0
    2768:	9f00c87c 	svcls	0x0000c87c
    276c:	00001460 	andeq	r1, r0, r0, ror #8
    2770:	0000146b 	andeq	r1, r0, fp, ror #8
    2774:	c87c0004 	ldmdagt	ip!, {r2}^
    2778:	14749f00 	ldrbtne	r9, [r4], #-3840	; 0xf00
    277c:	14780000 	ldrbtne	r0, [r8]
    2780:	00010000 	andeq	r0, r1, r0
    2784:	0014985c 	andseq	r9, r4, ip, asr r8
    2788:	0014a800 	andseq	sl, r4, r0, lsl #16
    278c:	08000300 	stmdaeq	r0, {r8, r9}
    2790:	00009f4c 	andeq	r9, r0, ip, asr #30
    2794:	00000000 	andeq	r0, r0, r0
    2798:	0eb80000 	cdpeq	0, 11, cr0, cr8, cr0, {0}
    279c:	10300000 	eorsne	r0, r0, r0
    27a0:	00020000 	andeq	r0, r2, r0
    27a4:	10d09f3a 	sbcsne	r9, r0, sl, lsr pc
    27a8:	10e40000 	rscne	r0, r4, r0
    27ac:	00020000 	andeq	r0, r2, r0
    27b0:	10e49f3a 	rscne	r9, r4, sl, lsr pc
    27b4:	10f00000 	rscsne	r0, r0, r0
    27b8:	00020000 	andeq	r0, r2, r0
    27bc:	10f09f40 	rscsne	r9, r0, r0, asr #30
    27c0:	12670000 	rsbne	r0, r7, #0
    27c4:	00010000 	andeq	r0, r1, r0
    27c8:	00128452 	andseq	r8, r2, r2, asr r4
    27cc:	0012e400 	andseq	lr, r2, r0, lsl #8
    27d0:	3a000200 	bcc	2fd8 <TEXT_BASE-0x33f7d028>
    27d4:	0012e49f 	mulseq	r2, pc, r4
    27d8:	0012f400 	andseq	pc, r2, r0, lsl #8
    27dc:	38000200 	stmdacc	r0, {r9}
    27e0:	0012f49f 	mulseq	r2, pc, r4
    27e4:	00138c00 	andseq	r8, r3, r0, lsl #24
    27e8:	3a000200 	bcc	2ff0 <TEXT_BASE-0x33f7d010>
    27ec:	00138c9f 	mulseq	r3, pc, ip
    27f0:	00139c00 	andseq	r9, r3, r0, lsl #24
    27f4:	30000200 	andcc	r0, r0, r0, lsl #4
    27f8:	00139c9f 	mulseq	r3, pc, ip
    27fc:	0013a700 	andseq	sl, r3, r0, lsl #14
    2800:	52000100 	andpl	r0, r0, #0
    2804:	000013b0 	undefined instruction 0x000013b0
    2808:	000013c7 	andeq	r1, r0, r7, asr #7
    280c:	d0520001 	subsle	r0, r2, r1
    2810:	e7000013 	smlad	r0, r3, r0, r0
    2814:	01000013 	tsteq	r0, r3, lsl r0
    2818:	13f05200 	mvnsne	r5, #0
    281c:	14070000 	strne	r0, [r7]
    2820:	00010000 	andeq	r0, r1, r0
    2824:	00141052 	andseq	r1, r4, r2, asr r0
    2828:	00144300 	andseq	r4, r4, r0, lsl #6
    282c:	52000100 	andpl	r0, r0, #0
    2830:	0000144c 	andeq	r1, r0, ip, asr #8
    2834:	00001457 	andeq	r1, r0, r7, asr r4
    2838:	60520001 	subsvs	r0, r2, r1
    283c:	6b000014 	blvs	2894 <TEXT_BASE-0x33f7d76c>
    2840:	01000014 	tsteq	r0, r4, lsl r0
    2844:	14745200 	ldrbtne	r5, [r4], #-512	; 0x200
    2848:	14840000 	strne	r0, [r4]
    284c:	00020000 	andeq	r0, r2, r0
    2850:	00009f3a 	andeq	r9, r0, sl, lsr pc
    2854:	00000000 	andeq	r0, r0, r0
    2858:	0e680000 	cdpeq	0, 6, cr0, cr8, cr0, {0}
    285c:	0e9c0000 	cdpeq	0, 9, cr0, cr12, cr0, {0}
    2860:	00030000 	andeq	r0, r3, r0
    2864:	9c9fff09 	ldcls	15, cr15, [pc], {9}
    2868:	5000000e 	andpl	r0, r0, lr
    286c:	01000010 	tsteq	r0, r0, lsl r0
    2870:	10d05200 	sbcsne	r5, r0, r0, lsl #4
    2874:	10f00000 	rscsne	r0, r0, r0
    2878:	00010000 	andeq	r0, r1, r0
    287c:	00128452 	andseq	r8, r2, r2, asr r4
    2880:	00129000 	andseq	r9, r2, r0
    2884:	52000100 	andpl	r0, r0, #0
    2888:	00001294 	muleq	r0, r4, r2
    288c:	00001298 	muleq	r0, r8, r2
    2890:	98520001 	ldmdals	r2, {r0}^
    2894:	a4000012 	strge	r0, [r0], #-18
    2898:	03000012 	movweq	r0, #18
    289c:	9f017200 	svcls	0x00017200
    28a0:	000012a4 	andeq	r1, r0, r4, lsr #5
    28a4:	000012b4 	undefined instruction 0x000012b4
    28a8:	c0520001 	subsgt	r0, r2, r1
    28ac:	cc000012 	stcgt	0, cr0, [r0], {18}
    28b0:	01000012 	tsteq	r0, r2, lsl r0
    28b4:	12d05200 	sbcsne	r5, r0, #0
    28b8:	12d80000 	sbcsne	r0, r8, #0
    28bc:	00010000 	andeq	r0, r1, r0
    28c0:	0012e452 	andseq	lr, r2, r2, asr r4
    28c4:	0012f000 	andseq	pc, r2, r0
    28c8:	52000100 	andpl	r0, r0, #0
    28cc:	000012f4 	strdeq	r1, [r0], -r4
    28d0:	00001300 	andeq	r1, r0, r0, lsl #6
    28d4:	08520001 	ldmdaeq	r2, {r0}^
    28d8:	2c000013 	stccs	0, cr0, [r0], {19}
    28dc:	01000013 	tsteq	r0, r3, lsl r0
    28e0:	132c5200 	teqne	ip, #0
    28e4:	13400000 	movtne	r0, #0
    28e8:	00030000 	andeq	r0, r3, r0
    28ec:	7c9f7f72 	ldcvc	15, cr7, [pc], {114}	; 0x72
    28f0:	88000013 	stmdahi	r0, {r0, r1, r4}
    28f4:	01000013 	tsteq	r0, r3, lsl r0
    28f8:	138c5200 	orrne	r5, ip, #0
    28fc:	13980000 	orrsne	r0, r8, #0
    2900:	00010000 	andeq	r0, r1, r0
    2904:	00147452 	andseq	r7, r4, r2, asr r4
    2908:	00147c00 	andseq	r7, r4, r0, lsl #24
    290c:	52000100 	andpl	r0, r0, #0
    2910:	00001484 	andeq	r1, r0, r4, lsl #9
    2914:	000014a8 	andeq	r1, r0, r8, lsr #9
    2918:	00520001 	subseq	r0, r2, r1
    291c:	00000000 	andeq	r0, r0, r0
    2920:	a8000000 	stmdage	r0, {}
    2924:	c400000d 	strgt	r0, [r0], #-13
    2928:	0200000d 	andeq	r0, r0, #13
    292c:	b89f3000 	ldmlt	pc, {ip, sp}
    2930:	3000000e 	andcc	r0, r0, lr
    2934:	02000010 	andeq	r0, r0, #16
    2938:	d09f3000 	addsle	r3, pc, r0
    293c:	f0000010 	undefined instruction 0xf0000010
    2940:	02000010 	andeq	r0, r0, #16
    2944:	f09f3000 	undefined instruction 0xf09f3000
    2948:	84000010 	strhi	r0, [r0], #-16
    294c:	02000012 	andeq	r0, r0, #18
    2950:	84449100 	strbhi	r9, [r4], #-256	; 0x100
    2954:	9c000012 	stcls	0, cr0, [r0], {18}
    2958:	02000013 	andeq	r0, r0, #19
    295c:	9c9f3000 	ldcls	0, cr3, [pc], {0}
    2960:	74000013 	strvc	r0, [r0], #-19
    2964:	02000014 	andeq	r0, r0, #20
    2968:	74449100 	strbvc	r9, [r4], #-256	; 0x100
    296c:	84000014 	strhi	r0, [r0], #-20
    2970:	02000014 	andeq	r0, r0, #20
    2974:	009f3000 	addseq	r3, pc, r0
    2978:	00000000 	andeq	r0, r0, r0
    297c:	94000000 	strls	r0, [r0]
    2980:	9c00000e 	stcls	0, cr0, [r0], {14}
    2984:	0100000e 	tsteq	r0, lr
    2988:	00005200 	andeq	r5, r0, r0, lsl #4
    298c:	00000000 	andeq	r0, r0, r0
    2990:	12640000 	rsbne	r0, r4, #0
    2994:	12670000 	rsbne	r0, r7, #0
    2998:	00020000 	andeq	r0, r2, r0
    299c:	12677c78 	rsbne	r7, r7, #30720	; 0x7800
    29a0:	126c0000 	rsbne	r0, ip, #0
    29a4:	00010000 	andeq	r0, r1, r0
    29a8:	00000057 	andeq	r0, r0, r7, asr r0
    29ac:	00000000 	andeq	r0, r0, r0
    29b0:	00128c00 	andseq	r8, r2, r0, lsl #24
    29b4:	00129400 	andseq	r9, r2, r0, lsl #8
    29b8:	78000200 	stmdavc	r0, {r9}
    29bc:	0012947c 	andseq	r9, r2, ip, ror r4
    29c0:	0012a000 	andseq	sl, r2, r0
    29c4:	5c000100 	stfpls	f0, [r0], {0}
    29c8:	000012a0 	andeq	r1, r0, r0, lsr #5
    29cc:	000012b4 	undefined instruction 0x000012b4
    29d0:	005c0001 	subseq	r0, ip, r1
    29d4:	00000000 	andeq	r0, r0, r0
    29d8:	08000000 	stmdaeq	r0, {}
    29dc:	40000013 	andmi	r0, r0, r3, lsl r0
    29e0:	02000013 	andeq	r0, r0, #19
    29e4:	407c7800 	rsbsmi	r7, ip, r0, lsl #16
    29e8:	5c000013 	stcpl	0, cr0, [r0], {19}
    29ec:	01000013 	tsteq	r0, r3, lsl r0
    29f0:	135c5900 	cmpne	ip, #0
    29f4:	137c0000 	cmnne	ip, #0
    29f8:	00010000 	andeq	r0, r1, r0
    29fc:	00147459 	andseq	r7, r4, r9, asr r4
    2a00:	00148400 	andseq	r8, r4, r0, lsl #8
    2a04:	59000100 	stmdbpl	r0, {r8}
	...
    2a10:	000012d0 	ldrdeq	r1, [r0], -r0
    2a14:	000012d4 	ldrdeq	r1, [r0], -r4
    2a18:	7c780002 	ldclvc	0, cr0, [r8], #-8
    2a1c:	000012d4 	ldrdeq	r1, [r0], -r4
    2a20:	000012e4 	andeq	r1, r0, r4, ror #5
    2a24:	78780002 	ldmdavc	r8!, {r1}^
	...
    2a30:	000013a4 	andeq	r1, r0, r4, lsr #7
    2a34:	000013a7 	andeq	r1, r0, r7, lsr #7
    2a38:	7c780002 	ldclvc	0, cr0, [r8], #-8
    2a3c:	000013a7 	andeq	r1, r0, r7, lsr #7
    2a40:	000013b0 	undefined instruction 0x000013b0
    2a44:	00570001 	subseq	r0, r7, r1
    2a48:	00000000 	andeq	r0, r0, r0
    2a4c:	c4000000 	strgt	r0, [r0]
    2a50:	c7000013 	smladgt	r0, r3, r0, r0
    2a54:	02000013 	andeq	r0, r0, #19
    2a58:	c77c7800 	ldrbgt	r7, [ip, -r0, lsl #16]!
    2a5c:	d0000013 	andle	r0, r0, r3, lsl r0
    2a60:	01000013 	tsteq	r0, r3, lsl r0
    2a64:	00005700 	andeq	r5, r0, r0, lsl #14
    2a68:	00000000 	andeq	r0, r0, r0
    2a6c:	13e40000 	mvnne	r0, #0
    2a70:	13e70000 	mvnne	r0, #0
    2a74:	00020000 	andeq	r0, r2, r0
    2a78:	13e77c78 	mvnne	r7, #30720	; 0x7800
    2a7c:	13f00000 	mvnsne	r0, #0
    2a80:	00010000 	andeq	r0, r1, r0
    2a84:	00000057 	andeq	r0, r0, r7, asr r0
    2a88:	00000000 	andeq	r0, r0, r0
    2a8c:	00140400 	andseq	r0, r4, r0, lsl #8
    2a90:	00140700 	andseq	r0, r4, r0, lsl #14
    2a94:	78000200 	stmdavc	r0, {r9}
    2a98:	0014077c 	andseq	r0, r4, ip, ror r7
    2a9c:	00141000 	andseq	r1, r4, r0
    2aa0:	57000100 	strpl	r0, [r0, -r0, lsl #2]
	...
    2aac:	00001440 	andeq	r1, r0, r0, asr #8
    2ab0:	00001443 	andeq	r1, r0, r3, asr #8
    2ab4:	7c780002 	ldclvc	0, cr0, [r8], #-8
    2ab8:	00001443 	andeq	r1, r0, r3, asr #8
    2abc:	0000144c 	andeq	r1, r0, ip, asr #8
    2ac0:	00570001 	subseq	r0, r7, r1
    2ac4:	00000000 	andeq	r0, r0, r0
    2ac8:	54000000 	strpl	r0, [r0]
    2acc:	57000014 	smladpl	r0, r4, r0, r0
    2ad0:	02000014 	andeq	r0, r0, #20
    2ad4:	577c7800 	ldrbpl	r7, [ip, -r0, lsl #16]!
    2ad8:	60000014 	andvs	r0, r0, r4, lsl r0
    2adc:	01000014 	tsteq	r0, r4, lsl r0
    2ae0:	00005700 	andeq	r5, r0, r0, lsl #14
    2ae4:	00000000 	andeq	r0, r0, r0
    2ae8:	14680000 	strbtne	r0, [r8]
    2aec:	146b0000 	strbtne	r0, [fp]
    2af0:	00020000 	andeq	r0, r2, r0
    2af4:	146b7c78 	strbtne	r7, [fp], #-3192	; 0xc78
    2af8:	14740000 	ldrbtne	r0, [r4]
    2afc:	00010000 	andeq	r0, r1, r0
    2b00:	00000057 	andeq	r0, r0, r7, asr r0
    2b04:	00000000 	andeq	r0, r0, r0
    2b08:	0014a800 	andseq	sl, r4, r0, lsl #16
    2b0c:	0014ac00 	andseq	sl, r4, r0, lsl #24
    2b10:	7d000200 	sfmvc	f0, 4, [r0]	; (stcvc 2, cr0, [r0])
    2b14:	0014ac00 	andseq	sl, r4, r0, lsl #24
    2b18:	0014b000 	andseq	fp, r4, r0
    2b1c:	7d000200 	sfmvc	f0, 4, [r0]	; (stcvc 2, cr0, [r0])
    2b20:	0014b00c 	andseq	fp, r4, ip
    2b24:	0014c800 	andseq	ip, r4, r0, lsl #16
    2b28:	7d000200 	sfmvc	f0, 4, [r0]	; (stcvc 2, cr0, [r0])
    2b2c:	00000010 	andeq	r0, r0, r0, lsl r0
    2b30:	00000000 	andeq	r0, r0, r0
    2b34:	0014a800 	andseq	sl, r4, r0, lsl #16
    2b38:	0014bb00 	andseq	fp, r4, r0, lsl #22
    2b3c:	50000100 	andpl	r0, r0, r0, lsl #2
	...

Disassembly of section .debug_pubnames:

00000000 <.debug_pubnames>:
   0:	00000036 	andeq	r0, r0, r6, lsr r0
   4:	00000002 	andeq	r0, r0, r2
   8:	00fd0000 	rscseq	r0, sp, r0
   c:	00390000 	eorseq	r0, r9, r0
  10:	75700000 	ldrbvc	r0, [r0]!
  14:	61686374 	smcvs	34356	; 0x8634
  18:	006b0072 	rsbeq	r0, fp, r2, ror r0
  1c:	75700000 	ldrbvc	r0, [r0]!
  20:	a1007374 	tstge	r0, r4, ror r3
  24:	6d000000 	stcvs	0, cr0, [r0]
  28:	006e6961 	rsbeq	r6, lr, r1, ror #18
  2c:	000000b9 	strheq	r0, [r0], -r9
  30:	6e69616d 	powvsez	f6, f1, #5.0
  34:	00000031 	andeq	r0, r0, r1, lsr r0
  38:	002e0000 	eoreq	r0, lr, r0
  3c:	00020000 	andeq	r0, r2, r0
  40:	000000fd 	strdeq	r0, [r0], -sp
  44:	0000007d 	andeq	r0, r0, sp, ror r0
  48:	00000025 	andeq	r0, r0, r5, lsr #32
  4c:	74726175 	ldrbtvc	r6, [r2], #-373	; 0x175
  50:	696e695f 	stmdbvs	lr!, {r0, r1, r2, r3, r4, r6, r8, fp, sp, lr}^
  54:	00390074 	eorseq	r0, r9, r4, ror r0
  58:	75700000 	ldrbvc	r0, [r0]!
  5c:	64006374 	strvs	r6, [r0], #-884	; 0x374
  60:	67000000 	strvs	r0, [r0, -r0]
  64:	00637465 	rsbeq	r7, r3, r5, ror #8
  68:	00000000 	andeq	r0, r0, r0
  6c:	00000028 	andeq	r0, r0, r8, lsr #32
  70:	017a0002 	cmneq	sl, r2
  74:	01bd0000 	undefined instruction 0x01bd0000
  78:	00e90000 	rsceq	r0, r9, r0
  7c:	6f630000 	svcvs	0x00630000
  80:	745f7970 	ldrbvc	r7, [pc], #2416	; 88 <TEXT_BASE-0x33f7ff78>
  84:	61725f6f 	cmnvs	r2, pc, ror #30
  88:	72665f6d 	rsbvc	r5, r6, #436	; 0x1b4
  8c:	6e5f6d6f 	cdpvs	13, 5, cr6, cr15, cr15, {3}
  90:	00646e61 	rsbeq	r6, r4, r1, ror #28
  94:	00000000 	andeq	r0, r0, r0
  98:	00000023 	andeq	r0, r0, r3, lsr #32
  9c:	03370002 	teqeq	r7, #2
  a0:	013f0000 	teqeq	pc, r0
  a4:	00440000 	subeq	r0, r4, r0
  a8:	72700000 	rsbsvc	r0, r0, #0
  ac:	66746e69 	ldrbtvs	r6, [r4], -r9, ror #28
  b0:	0000ae00 	andeq	sl, r0, r0, lsl #28
  b4:	61637300 	cmnvs	r3, r0, lsl #6
  b8:	0000666e 	andeq	r6, r0, lr, ror #12
  bc:	22000000 	andcs	r0, r0, #0
  c0:	02000001 	andeq	r0, r0, #1
  c4:	00047600 	andeq	r7, r4, r0, lsl #12
  c8:	000a7d00 	andeq	r7, sl, r0, lsl #26
  cc:	00014c00 	andeq	r4, r1, r0, lsl #24
  d0:	72747300 	rsbsvc	r7, r4, #0
  d4:	6d63696e 	stclvs	9, cr6, [r3, #-440]!	; 0xfffffe48
  d8:	01e70070 	mvneq	r0, r0, ror r0
  dc:	74730000 	ldrbtvc	r0, [r3]
  e0:	79706372 	ldmdbvc	r0!, {r1, r4, r5, r6, r8, r9, sp, lr}^
  e4:	00022f00 	andeq	r2, r2, r0, lsl #30
  e8:	72747300 	rsbsvc	r7, r4, #0
  ec:	7970636e 	ldmdbvc	r0!, {r1, r2, r3, r5, r6, r8, r9, sp, lr}^
  f0:	00028600 	andeq	r8, r2, r0, lsl #12
  f4:	72747300 	rsbsvc	r7, r4, #0
  f8:	00746163 	rsbseq	r6, r4, r3, ror #2
  fc:	000002ce 	andeq	r0, r0, lr, asr #5
 100:	6e727473 	mrcvs	4, 3, r7, cr2, cr3, {3}
 104:	00746163 	rsbseq	r6, r4, r3, ror #2
 108:	00000326 	andeq	r0, r0, r6, lsr #6
 10c:	63727473 	cmnvs	r2, #1929379840	; 0x73000000
 110:	7500706d 	strvc	r7, [r0, #-109]	; 0x6d
 114:	73000003 	movwvc	r0, #3
 118:	636e7274 	cmnvs	lr, #1073741831	; 0x40000007
 11c:	cc00706d 	stcgt	0, cr7, [r0], {109}	; 0x6d
 120:	73000003 	movwvc	r0, #3
 124:	68637274 	stmdavs	r3!, {r2, r4, r5, r6, r9, ip, sp, lr}^
 128:	04030072 	streq	r0, [r3], #-114	; 0x72
 12c:	74730000 	ldrbtvc	r0, [r3]
 130:	68637272 	stmdavs	r3!, {r1, r4, r5, r6, r9, ip, sp, lr}^
 134:	046f0072 	strbteq	r0, [pc], #114	; 13c <TEXT_BASE-0x33f7fec4>
 138:	74730000 	ldrbtvc	r0, [r3]
 13c:	6e656c72 	mcrvs	12, 3, r6, cr5, cr2, {3}
 140:	00049600 	andeq	r9, r4, r0, lsl #12
 144:	72747300 	rsbsvc	r7, r4, #0
 148:	6e656c6e 	cdpvs	12, 6, cr6, cr5, cr14, {3}
 14c:	0004dd00 	andeq	sp, r4, r0, lsl #26
 150:	72747300 	rsbsvc	r7, r4, #0
 154:	006e7073 	rsbeq	r7, lr, r3, ror r0
 158:	00000543 	andeq	r0, r0, r3, asr #10
 15c:	70727473 	rsbsvc	r7, r2, r3, ror r4
 160:	006b7262 	rsbeq	r7, fp, r2, ror #4
 164:	0000057b 	andeq	r0, r0, fp, ror r5
 168:	74727473 	ldrbtvc	r7, [r2], #-1139	; 0x473
 16c:	0a006b6f 	beq	1af30 <TEXT_BASE-0x33f650d0>
 170:	73000006 	movwvc	r0, #6
 174:	65737274 	ldrbvs	r7, [r3, #-628]!	; 0x274
 178:	06a10070 	sxtabeq	r0, r1, r0
 17c:	656d0000 	strbvs	r0, [sp]!
 180:	7465736d 	strbtvc	r7, [r5], #-877	; 0x36d
 184:	0006fc00 	andeq	pc, r6, r0, lsl #24
 188:	6f636200 	svcvs	0x00636200
 18c:	62007970 	andvs	r7, r0, #1835008	; 0x1c0000
 190:	6d000007 	stcvs	0, cr0, [r0, #-28]	; 0xffffffe4
 194:	70636d65 	rsbvc	r6, r3, r5, ror #26
 198:	07ca0079 	undefined instruction 0x07ca0079
 19c:	656d0000 	strbvs	r0, [sp]!
 1a0:	766f6d6d 	strbtvc	r6, [pc], -sp, ror #26
 1a4:	08340065 	ldmdaeq	r4!, {r0, r2, r5, r6}
 1a8:	656d0000 	strbvs	r0, [sp]!
 1ac:	706d636d 	rsbvc	r6, sp, sp, ror #6
 1b0:	00088000 	andeq	r8, r8, r0
 1b4:	6d656d00 	stclvs	13, cr6, [r5]
 1b8:	6e616373 	mcrvs	3, 3, r6, cr1, cr3, {3}
 1bc:	0008de00 	andeq	sp, r8, r0, lsl #28
 1c0:	72747300 	rsbsvc	r7, r4, #0
 1c4:	00727473 	rsbseq	r7, r2, r3, ror r4
 1c8:	000009e2 	andeq	r0, r0, r2, ror #19
 1cc:	636d656d 	cmnvs	sp, #457179136	; 0x1b400000
 1d0:	6a007268 	bvs	1cb78 <TEXT_BASE-0x33f63488>
 1d4:	5f00000a 	svcpl	0x0000000a
 1d8:	74735f5f 	ldrbtvc	r5, [r3], #-3935	; 0xf5f
 1dc:	6b6f7472 	blvs	1bdd3ac <TEXT_BASE-0x323a2c54>
 1e0:	00000000 	andeq	r0, r0, r0
 1e4:	0000c200 	andeq	ip, r0, r0, lsl #4
 1e8:	f3000200 	vhsub.u8	d0, d0, d0
 1ec:	b600000e 	strlt	r0, [r0], -lr
 1f0:	0c00000a 	stceq	0, cr0, [r0], {10}
 1f4:	73000002 	movwvc	r0, #2
 1f8:	6c706d69 	ldclvs	13, cr6, [r0], #-420	; 0xfffffe5c
 1fc:	74735f65 	ldrbtvc	r5, [r3], #-3941	; 0xf65
 200:	756f7472 	strbvc	r7, [pc, #-1138]!	; fffffd96 <MEM_CTL_BASE+0xb7fffd96>
 204:	02d2006c 	sbcseq	r0, r2, #108	; 0x6c
 208:	69730000 	ldmdbvs	r3!, {}^
 20c:	656c706d 	strbvs	r7, [ip, #-109]!	; 0x6d
 210:	7274735f 	rsbsvc	r7, r4, #2080374785	; 0x7c000001
 214:	006c6f74 	rsbeq	r6, ip, r4, ror pc
 218:	00000323 	andeq	r0, r0, r3, lsr #6
 21c:	706d6973 	rsbvc	r6, sp, r3, ror r9
 220:	735f656c 	cmpvc	pc, #452984832	; 0x1b000000
 224:	6f747274 	svcvs	0x00747274
 228:	006c6c75 	rsbeq	r6, ip, r5, ror ip
 22c:	000003de 	ldrdeq	r0, [r0], -lr
 230:	706d6973 	rsbvc	r6, sp, r3, ror r9
 234:	735f656c 	cmpvc	pc, #452984832	; 0x1b000000
 238:	6f747274 	svcvs	0x00747274
 23c:	2f006c6c 	svccs	0x00006c6c
 240:	76000004 	strvc	r0, [r0], -r4
 244:	72706e73 	rsbsvc	r6, r0, #1840	; 0x730
 248:	66746e69 	ldrbtvs	r6, [r4], -r9, ror #28
 24c:	0005e900 	andeq	lr, r5, r0, lsl #18
 250:	63737600 	cmnvs	r3, #0
 254:	6972706e 	ldmdbvs	r2!, {r1, r2, r3, r5, r6, ip, sp, lr}^
 258:	0066746e 	rsbeq	r7, r6, lr, ror #8
 25c:	00000656 	andeq	r0, r0, r6, asr r6
 260:	72706e73 	rsbsvc	r6, r0, #1840	; 0x730
 264:	66746e69 	ldrbtvs	r6, [r4], -r9, ror #28
 268:	0006bf00 	andeq	fp, r6, r0, lsl #30
 26c:	6e637300 	cdpvs	3, 6, cr7, cr3, cr0, {0}
 270:	6e697270 	mcrvs	2, 3, r7, cr9, cr0, {3}
 274:	2c006674 	stccs	6, cr6, [r0], {116}	; 0x74
 278:	76000007 	strvc	r0, [r0], -r7
 27c:	69727073 	ldmdbvs	r2!, {r0, r1, r4, r5, r6, ip, sp, lr}^
 280:	0066746e 	rsbeq	r7, r6, lr, ror #8
 284:	00000778 	andeq	r0, r0, r8, ror r7
 288:	69727073 	ldmdbvs	r2!, {r0, r1, r4, r5, r6, ip, sp, lr}^
 28c:	0066746e 	rsbeq	r7, r6, lr, ror #8
 290:	000007d1 	ldrdeq	r0, [r0], -r1
 294:	63737376 	cmnvs	r3, #-671088639	; 0xd8000001
 298:	00666e61 	rsbeq	r6, r6, r1, ror #28
 29c:	00000a37 	andeq	r0, r0, r7, lsr sl
 2a0:	61637373 	smcvs	14131	; 0x3733
 2a4:	0000666e 	andeq	r6, r0, lr, ror #12
 2a8:	19000000 	stmdbne	r0, {}
 2ac:	02000000 	andeq	r0, r0, #0
 2b0:	001a0f00 	andseq	r0, sl, r0, lsl #30
 2b4:	00006300 	andeq	r6, r0, r0, lsl #6
 2b8:	00005000 	andeq	r5, r0, r0
 2bc:	74635f00 	strbtvc	r5, [r3], #-3840	; 0xf00
 2c0:	00657079 	rsbeq	r7, r5, r9, ror r0
 2c4:	00000000 	andeq	r0, r0, r0

Disassembly of section .debug_pubtypes:

00000000 <.debug_pubtypes>:
   0:	0000000e 	andeq	r0, r0, lr
   4:	00000002 	andeq	r0, r0, r2
   8:	00fd0000 	rscseq	r0, sp, r0
   c:	00000000 	andeq	r0, r0, r0
  10:	001a0000 	andseq	r0, sl, r0
  14:	00020000 	andeq	r0, r2, r0
  18:	00000337 	andeq	r0, r0, r7, lsr r3
  1c:	0000013f 	andeq	r0, r0, pc, lsr r1
  20:	0000002c 	andeq	r0, r0, ip, lsr #32
  24:	6c5f6176 	ldfvse	f6, [pc], {118}	; 0x76
  28:	00747369 	rsbseq	r7, r4, r9, ror #6
  2c:	00000000 	andeq	r0, r0, r0
  30:	00000019 	andeq	r0, r0, r9, lsl r0
  34:	04760002 	ldrbteq	r0, [r6], #-2
  38:	0a7d0000 	beq	1f40040 <TEXT_BASE-0x3203ffc0>
  3c:	00250000 	eoreq	r0, r5, r0
  40:	69730000 	ldmdbvs	r3!, {}^
  44:	745f657a 	ldrbvc	r6, [pc], #1402	; 4c <TEXT_BASE-0x33f7ffb4>
  48:	00000000 	andeq	r0, r0, r0
  4c:	00002500 	andeq	r2, r0, r0, lsl #10
  50:	f3000200 	vhsub.u8	d0, d0, d0
  54:	b600000e 	strlt	r0, [r0], -lr
  58:	2500000a 	strcs	r0, [r0, #-10]
  5c:	73000000 	movwvc	r0, #0
  60:	5f657a69 	svcpl	0x00657a69
  64:	00370074 	eorseq	r0, r7, r4, ror r0
  68:	61760000 	cmnvs	r6, r0
  6c:	73696c5f 	cmnvc	r9, #24320	; 0x5f00
  70:	00000074 	andeq	r0, r0, r4, ror r0
	...

Disassembly of section .debug_aranges:

00000000 <.debug_aranges>:
   0:	0000001c 	andeq	r0, r0, ip, lsl r0
   4:	00000002 	andeq	r0, r0, r2
   8:	00040000 	andeq	r0, r4, r0
   c:	00000000 	andeq	r0, r0, r0
  10:	33f80250 	mvnscc	r0, #5
  14:	00000134 	andeq	r0, r0, r4, lsr r1
	...
  20:	0000001c 	andeq	r0, r0, ip, lsl r0
  24:	00fd0002 	rscseq	r0, sp, r2
  28:	00040000 	andeq	r0, r4, r0
  2c:	00000000 	andeq	r0, r0, r0
  30:	33f80384 	mvnscc	r0, #268435458	; 0x10000002
  34:	0000007c 	andeq	r0, r0, ip, ror r0
	...
  40:	0000001c 	andeq	r0, r0, ip, lsl r0
  44:	017a0002 	cmneq	sl, r2
  48:	00040000 	andeq	r0, r4, r0
  4c:	00000000 	andeq	r0, r0, r0
  50:	33f80400 	mvnscc	r0, #0
  54:	0000018c 	andeq	r0, r0, ip, lsl #3
	...
  60:	0000001c 	andeq	r0, r0, ip, lsl r0
  64:	03370002 	teqeq	r7, #2
  68:	00040000 	andeq	r0, r4, r0
  6c:	00000000 	andeq	r0, r0, r0
  70:	33f8058c 	mvnscc	r0, #587202560	; 0x23000000
  74:	000000c0 	andeq	r0, r0, r0, asr #1
	...
  80:	0000001c 	andeq	r0, r0, ip, lsl r0
  84:	04760002 	ldrbteq	r0, [r6], #-2
  88:	00040000 	andeq	r0, r4, r0
  8c:	00000000 	andeq	r0, r0, r0
  90:	33f8064c 	mvnscc	r0, #79691776	; 0x4c00000
  94:	00000784 	andeq	r0, r0, r4, lsl #15
	...
  a0:	0000001c 	andeq	r0, r0, ip, lsl r0
  a4:	0ef30002 	cdpeq	0, 15, cr0, cr3, cr2, {0}
  a8:	00040000 	andeq	r0, r4, r0
  ac:	00000000 	andeq	r0, r0, r0
  b0:	33f80dd0 	mvnscc	r0, #13312	; 0x3400
  b4:	000014c8 	andeq	r1, r0, r8, asr #9
	...
  c0:	0000001c 	andeq	r0, r0, ip, lsl r0
  c4:	19a90002 	stmibne	r9!, {r1}
  c8:	00040000 	andeq	r0, r4, r0
  cc:	00000000 	andeq	r0, r0, r0
  d0:	33f822a0 	mvnscc	r2, #10
  d4:	0000012c 	andeq	r0, r0, ip, lsr #2
	...

Disassembly of section .debug_str:

00000000 <.debug_str>:
   0:	63747570 	cmnvs	r4, #469762048	; 0x1c000000
   4:	00726168 	rsbseq	r6, r2, r8, ror #2
   8:	73747570 	cmnvc	r4, #469762048	; 0x1c000000
   c:	69616d00 	stmdbvs	r1!, {r8, sl, fp, sp, lr}^
  10:	00632e6e 	rsbeq	r2, r3, lr, ror #28
  14:	726f772f 	rsbvc	r7, pc, #12320768	; 0xbc0000
  18:	63652f6b 	cmnvs	r5, #428	; 0x1ac
  1c:	7370696c 	cmnvc	r0, #1769472	; 0x1b0000
  20:	72705f65 	rsbsvc	r5, r0, #404	; 0x194
  24:	63656a6f 	cmnvs	r5, #454656	; 0x6f000
  28:	6c2f7374 	stcvs	3, cr7, [pc], #-464	; 0xfffffe30
  2c:	69656675 	stmdbvs	r5!, {r0, r2, r4, r5, r6, r9, sl, sp, lr}^
  30:	68746f2f 	ldmdavs	r4!, {r0, r1, r2, r3, r5, r8, r9, sl, fp, sp, lr}^
  34:	312f7265 	teqcc	pc, r5, ror #4
  38:	74732e37 	ldrbtvc	r2, [r3], #-3639	; 0xe37
  3c:	2f6f6964 	svccs	0x006f6964
  40:	75626564 	strbvc	r6, [r2, #-1380]!	; 0x564
  44:	4e470067 	cdpmi	0, 4, cr0, cr7, cr7, {3}
  48:	20432055 	subcs	r2, r3, r5, asr r0
  4c:	2e352e34 	mrccs	14, 1, r2, cr5, cr4, {1}
  50:	616d0031 	cmnvs	sp, r1, lsr r0
  54:	6d006e69 	stcvs	14, cr6, [r0, #-420]	; 0xfffffe5c
  58:	316e6961 	cmncc	lr, r1, ror #18
  5c:	736e7500 	cmnvc	lr, #0
  60:	656e6769 	strbvs	r6, [lr, #-1897]!	; 0x769
  64:	68632064 	stmdavs	r3!, {r2, r5, r6, sp}^
  68:	75007261 	strvc	r7, [r0, #-609]	; 0x261
  6c:	2e747261 	cdpcs	2, 7, cr7, cr4, cr1, {3}
  70:	65670063 	strbvs	r0, [r7, #-99]!	; 0x63
  74:	75006374 	strvc	r6, [r0, #-884]	; 0x374
  78:	5f747261 	svcpl	0x00747261
  7c:	74696e69 	strbtvc	r6, [r9], #-3689	; 0xe69
  80:	74757000 	ldrbtvc	r7, [r5]
  84:	616c0063 	cmnvs	ip, r3, rrx
  88:	5f656772 	svcpl	0x00656772
  8c:	636f6c62 	cmnvs	pc, #25088	; 0x6200
  90:	616e006b 	cmnvs	lr, fp, rrx
  94:	635f646e 	cmpvs	pc, #1845493760	; 0x6e000000
  98:	00632e70 	rsbeq	r2, r3, r0, ror lr
  9c:	79706f63 	ldmdbvc	r0!, {r0, r1, r5, r6, r8, r9, sl, fp, sp, lr}^
  a0:	5f6f745f 	svcpl	0x006f745f
  a4:	5f6d6172 	svcpl	0x006d6172
  a8:	6d6f7266 	sfmvs	f7, 2, [pc, #-408]!	; (stclvs 2, cr7, [pc, #-408]!)	; 0xfffffe68
  ac:	6e616e5f 	mcrvs	14, 3, r6, cr1, cr15, {2}
  b0:	616e0064 	cmnvs	lr, r4, rrx
  b4:	6c6c646e 	cfstrdvs	mvd6, [ip], #-440	; 0xfffffe48
  b8:	6165725f 	cmnvs	r5, pc, asr r2
  bc:	61705f64 	cmnvs	r0, r4, ror #30
  c0:	70006567 	andvc	r6, r0, r7, ror #10
  c4:	5f656761 	svcpl	0x00656761
  c8:	66696873 	undefined instruction 0x66696873
  cc:	616e0074 	smcvs	57348	; 0xe004
  d0:	6c6c646e 	cfstrdvs	mvd6, [ip], #-440	; 0xfffffe48
  d4:	6165725f 	cmnvs	r5, pc, asr r2
  d8:	6c625f64 	stclvs	15, cr5, [r2], #-400	; 0xfffffe70
  dc:	736b636f 	cmnvc	fp, #-1140850687	; 0xbc000001
  e0:	67617000 	strbvs	r7, [r1, -r0]!
  e4:	69735f65 	ldmdbvs	r3!, {r0, r2, r5, r6, r8, r9, sl, fp, ip, lr}^
  e8:	6e00657a 	cfrshl64vs	mvdx0, mvdx10, r6
  ec:	6c646e61 	stclvs	14, cr6, [r4], #-388	; 0xfffffe7c
  f0:	65725f6c 	ldrbvs	r5, [r2, #-3948]!	; 0xf6c
  f4:	00746573 	rsbseq	r6, r4, r3, ror r5
  f8:	5f747364 	svcpl	0x00747364
  fc:	72646461 	rsbvc	r6, r4, #1627389952	; 0x61000000
 100:	67726100 	ldrbvs	r6, [r2, -r0, lsl #2]!
 104:	61760073 	cmnvs	r6, r3, ror r0
 108:	73696c5f 	cmnvc	r9, #24320	; 0x5f00
 10c:	772f0074 	undefined instruction 0x772f0074
 110:	2f6b726f 	svccs	0x006b726f
 114:	696c6365 	stmdbvs	ip!, {r0, r2, r5, r6, r8, r9, sp, lr}^
 118:	5f657370 	svcpl	0x00657370
 11c:	6a6f7270 	bvs	1bdcae4 <TEXT_BASE-0x323a351c>
 120:	73746365 	cmnvc	r4, #-1811939327	; 0x94000001
 124:	66756c2f 	ldrbtvs	r6, [r5], -pc, lsr #24
 128:	6f2f6965 	svcvs	0x002f6965
 12c:	72656874 	rsbvc	r6, r5, #7602176	; 0x740000
 130:	2e37312f 	rsfcssp	f3, f7, #10.0
 134:	69647473 	stmdbvs	r4!, {r0, r1, r4, r5, r6, sl, ip, sp, lr}^
 138:	65642f6f 	strbvs	r2, [r4, #-3951]!	; 0xf6f
 13c:	2f677562 	svccs	0x00677562
 140:	0062696c 	rsbeq	r6, r2, ip, ror #18
 144:	63705f67 	cmnvs	r0, #412	; 0x19c
 148:	4274754f 	rsbsmi	r7, r4, #331350016	; 0x13c00000
 14c:	67006675 	smlsdxvs	r0, r5, r6, r6
 150:	4963705f 	stmdbmi	r3!, {r0, r1, r2, r3, r4, r6, ip, sp, lr}^
 154:	6675426e 	ldrbtvs	r4, [r5], -lr, ror #4
 158:	72747300 	rsbsvc	r7, r4, #0
 15c:	00706573 	rsbseq	r6, r0, r3, ror r5
 160:	6d6d656d 	cfstr64vs	mvdx6, [sp, #-436]!	; 0xfffffe4c
 164:	0065766f 	rsbeq	r7, r5, pc, ror #12
 168:	657a6973 	ldrbvs	r6, [sl, #-2419]!	; 0x973
 16c:	7300745f 	movwvc	r7, #1119	; 0x45f
 170:	74737274 	ldrbtvc	r7, [r3], #-628	; 0x274
 174:	6f630072 	svcvs	0x00630072
 178:	00746e75 	rsbseq	r6, r4, r5, ror lr
 17c:	736d656d 	cmnvc	sp, #457179136	; 0x1b400000
 180:	61007465 	tstvs	r0, r5, ror #8
 184:	70656363 	rsbvc	r6, r5, r3, ror #6
 188:	656d0074 	strbvs	r0, [sp, #-116]!	; 0x74
 18c:	7268636d 	rsbvc	r6, r8, #-1275068415	; 0xb4000001
 190:	6d656d00 	stclvs	13, cr6, [r5]
 194:	6e616373 	mcrvs	3, 3, r6, cr1, cr3, {3}
 198:	72747300 	rsbsvc	r7, r4, #0
 19c:	00726863 	rsbseq	r6, r2, r3, ror #16
 1a0:	74736564 	ldrbtvc	r6, [r3], #-1380	; 0x564
 1a4:	00706d54 	rsbseq	r6, r0, r4, asr sp
 1a8:	735f5f5f 	cmpvc	pc, #380	; 0x17c
 1ac:	6f747274 	svcvs	0x00747274
 1b0:	5f5f006b 	svcpl	0x005f006b
 1b4:	6f6c6f74 	svcvs	0x006c6f74
 1b8:	00726577 	rsbseq	r6, r2, r7, ror r5
 1bc:	6c727473 	cfldrdvs	mvd7, [r2], #-460	; 0xfffffe34
 1c0:	64006e65 	strvs	r6, [r0], #-3685	; 0xe65
 1c4:	00747365 	rsbseq	r7, r4, r5, ror #6
 1c8:	706f6362 	rsbvc	r6, pc, r2, ror #6
 1cc:	74730079 	ldrbtvc	r0, [r3], #-121	; 0x79
 1d0:	79706372 	ldmdbvc	r0!, {r1, r4, r5, r6, r8, r9, sp, lr}^
 1d4:	72747300 	rsbsvc	r7, r4, #0
 1d8:	00746163 	rsbseq	r6, r4, r3, ror #2
 1dc:	6e727473 	mrcvs	4, 3, r7, cr2, cr3, {3}
 1e0:	00797063 	rsbseq	r7, r9, r3, rrx
 1e4:	54637273 	strbtpl	r7, [r3], #-627	; 0x273
 1e8:	7300706d 	movwvc	r7, #109	; 0x6d
 1ec:	62707274 	rsbsvs	r7, r0, #1073741831	; 0x40000007
 1f0:	6d006b72 	vstrvs	d6, [r0, #-456]	; 0xfffffe38
 1f4:	6d636d65 	stclvs	13, cr6, [r3, #-404]!	; 0xfffffe6c
 1f8:	74730070 	ldrbtvc	r0, [r3], #-112	; 0x70
 1fc:	61636e72 	smcvs	14050	; 0x36e2
 200:	65730074 	ldrbvs	r0, [r3, #-116]!	; 0x74
 204:	7300646e 	movwvc	r6, #1134	; 0x46e
 208:	6c6e7274 	sfmvs	f7, 2, [lr], #-464	; (stclvs 2, cr7, [lr], #-464)	; 0xfffffe30
 20c:	73006e65 	movwvc	r6, #3685	; 0xe65
 210:	6d637274 	sfmvs	f7, 2, [r3, #-464]!	; (stclvs 2, cr7, [r3, #-464]!)	; 0xfffffe30
 214:	656d0070 	strbvs	r0, [sp, #-112]!	; 0x70
 218:	7970636d 	ldmdbvc	r0!, {r0, r2, r3, r5, r6, r8, r9, sp, lr}^
 21c:	72747300 	rsbsvc	r7, r4, #0
 220:	006e7073 	rsbeq	r7, lr, r3, ror r0
 224:	69727473 	ldmdbvs	r2!, {r0, r1, r4, r5, r6, sl, ip, sp, lr}^
 228:	632e676e 	teqvs	lr, #28835840	; 0x1b80000
 22c:	65627300 	strbvs	r7, [r2, #-768]!	; 0x300
 230:	006e6967 	rsbeq	r6, lr, r7, ror #18
 234:	6e727473 	mrcvs	4, 3, r7, cr2, cr3, {3}
 238:	706d6369 	rsbvc	r6, sp, r9, ror #6
 23c:	725f5f00 	subsvc	r5, pc, #0
 240:	73007365 	movwvc	r7, #869	; 0x365
 244:	636e7274 	cmnvs	lr, #1073741831	; 0x40000007
 248:	5f00706d 	svcpl	0x0000706d
 24c:	70797463 	rsbsvc	r7, r9, r3, ror #8
 250:	74730065 	ldrbtvc	r0, [r3], #-101	; 0x65
 254:	68637272 	stmdavs	r3!, {r1, r4, r5, r6, r9, ip, sp, lr}^
 258:	69730072 	ldmdbvs	r3!, {r1, r4, r5, r6}^
 25c:	656c706d 	strbvs	r7, [ip, #-109]!	; 0x6d
 260:	7274735f 	rsbsvc	r7, r4, #2080374785	; 0x7c000001
 264:	6c756f74 	ldclvs	15, cr6, [r5], #-464	; 0xfffffe30
 268:	6b73006c 	blvs	1cc0420 <TEXT_BASE-0x322bfbe0>
 26c:	615f7069 	cmpvs	pc, r9, rrx
 270:	00696f74 	rsbeq	r6, r9, r4, ror pc
 274:	756c6176 	strbvc	r6, [ip, #-374]!	; 0x176
 278:	73760065 	cmnvc	r6, #101	; 0x65
 27c:	6972706e 	ldmdbvs	r2!, {r1, r2, r3, r5, r6, ip, sp, lr}^
 280:	0066746e 	rsbeq	r7, r6, lr, ror #8
 284:	69676964 	stmdbvs	r7!, {r2, r5, r6, r8, fp, sp, lr}^
 288:	68730074 	ldmdavs	r3!, {r2, r4, r5, r6}^
 28c:	2074726f 	rsbscs	r7, r4, pc, ror #4
 290:	00746e69 	rsbseq	r6, r4, r9, ror #28
 294:	6e637376 	mcrvs	3, 3, r7, cr3, cr6, {3}
 298:	6e697270 	mcrvs	2, 3, r7, cr9, cr0, {3}
 29c:	5f006674 	svcpl	0x00006674
 2a0:	7361625f 	cmnvc	r1, #-268435451	; 0xf0000005
 2a4:	5f5f0065 	svcpl	0x005f0065
 2a8:	70756f74 	rsbsvc	r6, r5, r4, ror pc
 2ac:	00726570 	rsbseq	r6, r2, r0, ror r5
 2b0:	6e726177 	mrcvs	1, 3, r6, cr2, cr7, {3}
 2b4:	6d697300 	stclvs	3, cr7, [r9]
 2b8:	5f656c70 	svcpl	0x00656c70
 2bc:	74727473 	ldrbtvc	r7, [r2], #-1139	; 0x473
 2c0:	006c6c6f 	rsbeq	r6, ip, pc, ror #24
 2c4:	63737376 	cmnvs	r3, #-671088639	; 0xd8000001
 2c8:	00666e61 	rsbeq	r6, r6, r1, ror #28
 2cc:	70646e65 	rsbvc	r6, r4, r5, ror #28
 2d0:	6d697300 	stclvs	3, cr7, [r9]
 2d4:	5f656c70 	svcpl	0x00656c70
 2d8:	74727473 	ldrbtvc	r7, [r2], #-1139	; 0x473
 2dc:	73006c6f 	movwvc	r6, #3183	; 0xc6f
 2e0:	6c6c616d 	stfvse	f6, [ip], #-436	; 0xfffffe4c
 2e4:	6769645f 	undefined instruction 0x6769645f
 2e8:	00737469 	rsbseq	r7, r3, r9, ror #8
 2ec:	67616c66 	strbvs	r6, [r1, -r6, ror #24]!
 2f0:	75710073 	ldrbvc	r0, [r1, #-115]!	; 0x73
 2f4:	66696c61 	strbtvs	r6, [r9], -r1, ror #24
 2f8:	00726569 	rsbseq	r6, r2, r9, ror #10
 2fc:	72707376 	rsbsvc	r7, r0, #-671088639	; 0xd8000001
 300:	66746e69 	ldrbtvs	r6, [r4], -r9, ror #28
 304:	7300632e 	movwvc	r6, #814	; 0x32e
 308:	6c706d69 	ldclvs	13, cr6, [r0], #-420	; 0xfffffe5c
 30c:	74735f65 	ldrbtvc	r5, [r3], #-3941	; 0xf65
 310:	756f7472 	strbvc	r7, [pc, #-1138]!	; fffffea6 <MEM_CTL_BASE+0xb7fffea6>
 314:	616c006c 	cmnvs	ip, ip, rrx
 318:	5f656772 	svcpl	0x00656772
 31c:	69676964 	stmdbvs	r7!, {r2, r5, r6, r8, fp, sp, lr}^
 320:	72007374 	andvc	r7, r0, #-805306367	; 0xd0000001
 324:	6c757365 	ldclvs	3, cr7, [r5], #-404	; 0xfffffe6c
 328:	65720074 	ldrbvs	r0, [r2, #-116]!	; 0x74
 32c:	74616570 	strbtvc	r6, [r1], #-1392	; 0x570
 330:	6d756e00 	ldclvs	14, cr6, [r5]
 334:	00726562 	rsbseq	r6, r2, r2, ror #10
 338:	726f6873 	rsbvc	r6, pc, #7536640	; 0x730000
 33c:	6e752074 	mrcvs	0, 3, r2, cr5, cr4, {3}
 340:	6e676973 	mcrvs	9, 3, r6, cr7, cr3, {3}
 344:	69206465 	stmdbvs	r0!, {r0, r2, r5, r6, sl, sp, lr}
 348:	6c00746e 	cfstrsvs	mvf7, [r0], {110}	; 0x6e
 34c:	20676e6f 	rsbcs	r6, r7, pc, ror #28
 350:	676e6f6c 	strbvs	r6, [lr, -ip, ror #30]!
 354:	746e6920 	strbtvc	r6, [lr], #-2336	; 0x920
 358:	65727000 	ldrbvs	r7, [r2]!
 35c:	69736963 	ldmdbvs	r3!, {r0, r1, r5, r6, r8, fp, sp, lr}^
 360:	66006e6f 	strvs	r6, [r0], -pc, ror #28
 364:	646c6569 	strbtvs	r6, [ip], #-1385	; 0x569
 368:	6469775f 	strbtvs	r7, [r9], #-1887	; 0x75f
 36c:	5f006874 	svcpl	0x00006874
 370:	6d65725f 	sfmvs	f7, 2, [r5, #-380]!	; (stclvs 2, cr7, [r5, #-380]!)	; 0xfffffe84
 374:	70737600 	rsbsvc	r7, r3, r0, lsl #12
 378:	746e6972 	strbtvc	r6, [lr], #-2418	; 0x972
 37c:	73690066 	cmnvc	r9, #102	; 0x66
 380:	6769735f 	undefined instruction 0x6769735f
 384:	656e006e 	strbvs	r0, [lr, #-110]!	; 0x6e
 388:	6c007478 	cfstrsvs	mvf7, [r0], {120}	; 0x78
 38c:	20676e6f 	rsbcs	r6, r7, pc, ror #28
 390:	676e6f6c 	strbvs	r6, [lr, -ip, ror #30]!
 394:	736e7520 	cmnvc	lr, #134217728	; 0x8000000
 398:	656e6769 	strbvs	r6, [lr, #-1897]!	; 0x769
 39c:	6e692064 	cdpvs	0, 6, cr2, cr9, cr4, {3}
 3a0:	74630074 	strbtvc	r0, [r3], #-116	; 0x74
 3a4:	2e657079 	mcrcs	0, 3, r7, cr5, cr9, {3}
 3a8:	Address 0x000003a8 is out of bounds.


Disassembly of section .comment:

00000000 <.comment>:
   0:	3a434347 	bcc	10d0d24 <TEXT_BASE-0x32eaf2dc>
   4:	74632820 	strbtvc	r2, [r3], #-2080	; 0x820
   8:	312d676e 	teqcc	sp, lr, ror #14
   c:	312e382e 	teqcc	lr, lr, lsr #16
  10:	2941462d 	stmdbcs	r1, {r0, r2, r3, r5, r9, sl, lr}^
  14:	352e3420 	strcc	r3, [lr, #-1056]!	; 0x420
  18:	Address 0x00000018 is out of bounds.


Disassembly of section .ARM.attributes:

00000000 <.ARM.attributes>:
   0:	00003341 	andeq	r3, r0, r1, asr #6
   4:	61656100 	cmnvs	r5, r0, lsl #2
   8:	01006962 	tsteq	r0, r2, ror #18
   c:	00000029 	andeq	r0, r0, r9, lsr #32
  10:	4d524105 	ldfmie	f4, [r2, #-20]	; 0xffffffec
  14:	36373131 	undefined instruction 0x36373131
  18:	2d465a4a 	vstrcs	s11, [r6, #-296]	; 0xfffffed8
  1c:	09060053 	stmdbeq	r6, {r0, r1, r4, r6}
  20:	01090108 	tsteq	r9, r8, lsl #2
  24:	0412020a 	ldreq	r0, [r2], #-522	; 0x20a
  28:	01150114 	tsteq	r5, r4, lsl r1
  2c:	01180317 	tsteq	r8, r7, lsl r3
  30:	031b021a 	tsteq	fp, #-1610612735	; 0xa0000001

Disassembly of section .debug_frame:

00000000 <.debug_frame>:
   0:	0000000c 	andeq	r0, r0, ip
   4:	ffffffff 	undefined instruction 0xffffffff
   8:	7c020001 	stcvc	0, cr0, [r2], {1}
   c:	000d0c0e 	andeq	r0, sp, lr, lsl #24
  10:	00000014 	andeq	r0, r0, r4, lsl r0
  14:	00000000 	andeq	r0, r0, r0
  18:	33f80250 	mvnscc	r0, #5
  1c:	0000005c 	andeq	r0, r0, ip, asr r0
  20:	42080e44 	andmi	r0, r8, #1088	; 0x440
  24:	0284018e 	addeq	r0, r4, #-2147483613	; 0x80000023
  28:	00000014 	andeq	r0, r0, r4, lsl r0
  2c:	00000000 	andeq	r0, r0, r0
  30:	33f802ac 	mvnscc	r0, #-1073741814	; 0xc000000a
  34:	0000002c 	andeq	r0, r0, ip, lsr #32
  38:	42080e42 	andmi	r0, r8, #1056	; 0x420
  3c:	0284018e 	addeq	r0, r4, #-2147483613	; 0x80000023
  40:	00000014 	andeq	r0, r0, r4, lsl r0
  44:	00000000 	andeq	r0, r0, r0
  48:	33f802d8 	mvnscc	r0, #-2147483635	; 0x8000000d
  4c:	00000038 	andeq	r0, r0, r8, lsr r0
  50:	8e080e42 	cdphi	14, 0, cr0, cr8, cr2, {2}
  54:	00028301 	andeq	r8, r2, r1, lsl #6
  58:	0000001c 	andeq	r0, r0, ip, lsl r0
  5c:	00000000 	andeq	r0, r0, r0
  60:	33f80310 	mvnscc	r0, #1073741824	; 0x40000000
  64:	00000074 	andeq	r0, r0, r4, ror r0
  68:	440c0e42 	strmi	r0, [ip], #-3650	; 0xe42
  6c:	8e44180e 	cdphi	8, 4, cr1, cr4, cr14, {0}
  70:	84028501 	strhi	r8, [r2], #-1281	; 0x501
  74:	00000003 	andeq	r0, r0, r3
  78:	0000000c 	andeq	r0, r0, ip
  7c:	ffffffff 	undefined instruction 0xffffffff
  80:	7c020001 	stcvc	0, cr0, [r2], {1}
  84:	000d0c0e 	andeq	r0, sp, lr, lsl #24
  88:	0000000c 	andeq	r0, r0, ip
  8c:	00000078 	andeq	r0, r0, r8, ror r0
  90:	33f80384 	mvnscc	r0, #268435458	; 0x10000002
  94:	00000044 	andeq	r0, r0, r4, asr #32
  98:	0000000c 	andeq	r0, r0, ip
  9c:	00000078 	andeq	r0, r0, r8, ror r0
  a0:	33f803c8 	mvnscc	r0, #536870915	; 0x20000003
  a4:	0000001c 	andeq	r0, r0, ip, lsl r0
  a8:	0000000c 	andeq	r0, r0, ip
  ac:	00000078 	andeq	r0, r0, r8, ror r0
  b0:	33f803e4 	mvnscc	r0, #-1879048189	; 0x90000003
  b4:	0000001c 	andeq	r0, r0, ip, lsl r0
  b8:	0000000c 	andeq	r0, r0, ip
  bc:	ffffffff 	undefined instruction 0xffffffff
  c0:	7c020001 	stcvc	0, cr0, [r2], {1}
  c4:	000d0c0e 	andeq	r0, sp, lr, lsl #24
  c8:	00000024 	andeq	r0, r0, r4, lsr #32
  cc:	000000b8 	strheq	r0, [r0], -r8
  d0:	33f80400 	mvnscc	r0, #0
  d4:	0000018c 	andeq	r0, r0, ip, lsl #3
  d8:	501c0e46 	andspl	r0, ip, r6, asr #28
  dc:	8a60280e 	bhi	180a11c <TEXT_BASE-0x32775ee4>
  e0:	88028901 	stmdahi	r2, {r0, r8, fp, pc}
  e4:	86048703 	strhi	r8, [r4], -r3, lsl #14
  e8:	84068505 	strhi	r8, [r6], #-1285	; 0x505
  ec:	00000007 	andeq	r0, r0, r7
  f0:	0000000c 	andeq	r0, r0, ip
  f4:	ffffffff 	undefined instruction 0xffffffff
  f8:	7c020001 	stcvc	0, cr0, [r2], {1}
  fc:	000d0c0e 	andeq	r0, sp, lr, lsl #24
 100:	00000024 	andeq	r0, r0, r4, lsr #32
 104:	000000f0 	strdeq	r0, [r0], -r0
 108:	33f8058c 	mvnscc	r0, #587202560	; 0x23000000
 10c:	00000058 	andeq	r0, r0, r8, asr r0
 110:	42100e42 	andsmi	r0, r0, #1056	; 0x420
 114:	8e42200e 	cdphi	0, 4, cr2, cr2, cr14, {0}
 118:	85068605 	strhi	r8, [r6, #-1541]	; 0x605
 11c:	83088407 	movwhi	r8, #33799	; 0x8407
 120:	81028201 	tsthi	r2, r1, lsl #4
 124:	00048003 	andeq	r8, r4, r3
 128:	00000024 	andeq	r0, r0, r4, lsr #32
 12c:	000000f0 	strdeq	r0, [r0], -r0
 130:	33f805e4 	mvnscc	r0, #956301312	; 0x39000000
 134:	00000068 	andeq	r0, r0, r8, rrx
 138:	42100e42 	andsmi	r0, r0, #1056	; 0x420
 13c:	8e42200e 	cdphi	0, 4, cr2, cr2, cr14, {0}
 140:	85068605 	strhi	r8, [r6, #-1541]	; 0x605
 144:	83088407 	movwhi	r8, #33799	; 0x8407
 148:	81028201 	tsthi	r2, r1, lsl #4
 14c:	00048003 	andeq	r8, r4, r3
 150:	0000000c 	andeq	r0, r0, ip
 154:	ffffffff 	undefined instruction 0xffffffff
 158:	7c020001 	stcvc	0, cr0, [r2], {1}
 15c:	000d0c0e 	andeq	r0, sp, lr, lsl #24
 160:	00000018 	andeq	r0, r0, r8, lsl r0
 164:	00000150 	andeq	r0, r0, r0, asr r1
 168:	33f8064c 	mvnscc	r0, #79691776	; 0x4c00000
 16c:	0000008c 	andeq	r0, r0, ip, lsl #1
 170:	44100e44 	ldrmi	r0, [r0], #-3652	; 0xe44
 174:	02860187 	addeq	r0, r6, #-1073741791	; 0xc0000021
 178:	04840385 	streq	r0, [r4], #901	; 0x385
 17c:	0000000c 	andeq	r0, r0, ip
 180:	00000150 	andeq	r0, r0, r0, asr r1
 184:	33f806d8 	mvnscc	r0, #226492416	; 0xd800000
 188:	0000001c 	andeq	r0, r0, ip, lsl r0
 18c:	0000000c 	andeq	r0, r0, ip
 190:	00000150 	andeq	r0, r0, r0, asr r1
 194:	33f806f4 	mvnscc	r0, #255852544	; 0xf400000
 198:	00000028 	andeq	r0, r0, r8, lsr #32
 19c:	0000000c 	andeq	r0, r0, ip
 1a0:	00000150 	andeq	r0, r0, r0, asr r1
 1a4:	33f8071c 	mvnscc	r0, #7340032	; 0x700000
 1a8:	00000040 	andeq	r0, r0, r0, asr #32
 1ac:	00000014 	andeq	r0, r0, r4, lsl r0
 1b0:	00000150 	andeq	r0, r0, r0, asr r1
 1b4:	33f8075c 	mvnscc	r0, #24117248	; 0x1700000
 1b8:	00000060 	andeq	r0, r0, r0, rrx
 1bc:	42040e44 	andmi	r0, r4, #1088	; 0x440
 1c0:	00000184 	andeq	r0, r0, r4, lsl #3
 1c4:	0000000c 	andeq	r0, r0, ip
 1c8:	00000150 	andeq	r0, r0, r0, asr r1
 1cc:	33f807bc 	mvnscc	r0, #49283072	; 0x2f00000
 1d0:	0000003c 	andeq	r0, r0, ip, lsr r0
 1d4:	0000000c 	andeq	r0, r0, ip
 1d8:	00000150 	andeq	r0, r0, r0, asr r1
 1dc:	33f807f8 	mvnscc	r0, #65011712	; 0x3e00000
 1e0:	00000070 	andeq	r0, r0, r0, ror r0
 1e4:	0000000c 	andeq	r0, r0, ip
 1e8:	00000150 	andeq	r0, r0, r0, asr r1
 1ec:	33f80868 	mvnscc	r0, #6815744	; 0x680000
 1f0:	00000050 	andeq	r0, r0, r0, asr r0
 1f4:	0000000c 	andeq	r0, r0, ip
 1f8:	00000150 	andeq	r0, r0, r0, asr r1
 1fc:	33f808b8 	mvnscc	r0, #12058624	; 0xb80000
 200:	00000054 	andeq	r0, r0, r4, asr r0
 204:	0000000c 	andeq	r0, r0, ip
 208:	00000150 	andeq	r0, r0, r0, asr r1
 20c:	33f8090c 	mvnscc	r0, #196608	; 0x30000
 210:	00000030 	andeq	r0, r0, r0, lsr r0
 214:	0000000c 	andeq	r0, r0, ip
 218:	00000150 	andeq	r0, r0, r0, asr r1
 21c:	33f8093c 	mvnscc	r0, #983040	; 0xf0000
 220:	00000058 	andeq	r0, r0, r8, asr r0
 224:	00000014 	andeq	r0, r0, r4, lsl r0
 228:	00000150 	andeq	r0, r0, r0, asr r1
 22c:	33f80994 	mvnscc	r0, #2424832	; 0x250000
 230:	0000006c 	andeq	r0, r0, ip, rrx
 234:	48080e42 	stmdami	r8, {r1, r6, r9, sl, fp}
 238:	02840185 	addeq	r0, r4, #1073741857	; 0x40000021
 23c:	00000014 	andeq	r0, r0, r4, lsl r0
 240:	00000150 	andeq	r0, r0, r0, asr r1
 244:	33f80a00 	mvnscc	r0, #0
 248:	00000060 	andeq	r0, r0, r0, rrx
 24c:	46080e42 	strmi	r0, [r8], -r2, asr #28
 250:	02840185 	addeq	r0, r4, #1073741857	; 0x40000021
 254:	00000018 	andeq	r0, r0, r8, lsl r0
 258:	00000150 	andeq	r0, r0, r0, asr r1
 25c:	33f80a60 	mvnscc	r0, #393216	; 0x60000
 260:	000000c0 	andeq	r0, r0, r0, asr #1
 264:	42100e42 	andsmi	r0, r0, #1056	; 0x420
 268:	0286018e 	addeq	r0, r6, #-2147483613	; 0x80000023
 26c:	04840385 	streq	r0, [r4], #901	; 0x385
 270:	00000018 	andeq	r0, r0, r8, lsl r0
 274:	00000150 	andeq	r0, r0, r0, asr r1
 278:	33f80b20 	mvnscc	r0, #32768	; 0x8000
 27c:	00000084 	andeq	r0, r0, r4, lsl #1
 280:	440c0e44 	strmi	r0, [ip], #-3652	; 0xe44
 284:	02850186 	addeq	r0, r5, #-2147483615	; 0x80000021
 288:	00000384 	andeq	r0, r0, r4, lsl #7
 28c:	0000000c 	andeq	r0, r0, ip
 290:	00000150 	andeq	r0, r0, r0, asr r1
 294:	33f80ba4 	mvnscc	r0, #167936	; 0x29000
 298:	00000024 	andeq	r0, r0, r4, lsr #32
 29c:	0000000c 	andeq	r0, r0, ip
 2a0:	00000150 	andeq	r0, r0, r0, asr r1
 2a4:	33f80bc8 	mvnscc	r0, #204800	; 0x32000
 2a8:	00000024 	andeq	r0, r0, r4, lsr #32
 2ac:	0000000c 	andeq	r0, r0, ip
 2b0:	00000150 	andeq	r0, r0, r0, asr r1
 2b4:	33f80bec 	mvnscc	r0, #241664	; 0x3b000
 2b8:	00000024 	andeq	r0, r0, r4, lsr #32
 2bc:	0000000c 	andeq	r0, r0, ip
 2c0:	00000150 	andeq	r0, r0, r0, asr r1
 2c4:	33f80c10 	mvnscc	r0, #4096	; 0x1000
 2c8:	00000050 	andeq	r0, r0, r0, asr r0
 2cc:	00000014 	andeq	r0, r0, r4, lsl r0
 2d0:	00000150 	andeq	r0, r0, r0, asr r1
 2d4:	33f80c60 	mvnscc	r0, #24576	; 0x6000
 2d8:	00000050 	andeq	r0, r0, r0, asr r0
 2dc:	44040e46 	strmi	r0, [r4], #-3654	; 0xe46
 2e0:	00000184 	andeq	r0, r0, r4, lsl #3
 2e4:	0000000c 	andeq	r0, r0, ip
 2e8:	00000150 	andeq	r0, r0, r0, asr r1
 2ec:	33f80cb0 	mvnscc	r0, #45056	; 0xb000
 2f0:	0000003c 	andeq	r0, r0, ip, lsr r0
 2f4:	0000001c 	andeq	r0, r0, ip, lsl r0
 2f8:	00000150 	andeq	r0, r0, r0, asr r1
 2fc:	33f80cec 	mvnscc	r0, #60416	; 0xec00
 300:	000000b0 	strheq	r0, [r0], -r0
 304:	44140e44 	ldrmi	r0, [r4], #-3652	; 0xe44
 308:	02870188 	addeq	r0, r7, #34	; 0x22
 30c:	04850386 	streq	r0, [r5], #902	; 0x386
 310:	00000584 	andeq	r0, r0, r4, lsl #11
 314:	0000000c 	andeq	r0, r0, ip
 318:	00000150 	andeq	r0, r0, r0, asr r1
 31c:	33f80d9c 	mvnscc	r0, #9984	; 0x2700
 320:	00000034 	andeq	r0, r0, r4, lsr r0
 324:	0000000c 	andeq	r0, r0, ip
 328:	ffffffff 	undefined instruction 0xffffffff
 32c:	7c020001 	stcvc	0, cr0, [r2], {1}
 330:	000d0c0e 	andeq	r0, sp, lr, lsl #24
 334:	00000028 	andeq	r0, r0, r8, lsr #32
 338:	00000324 	andeq	r0, r0, r4, lsr #6
 33c:	33f80dd0 	mvnscc	r0, #13312	; 0x3400
 340:	000002f8 	strdeq	r0, [r0], -r8
 344:	42240e42 	eormi	r0, r4, #1056	; 0x420
 348:	4201800e 	andmi	r8, r1, #14
 34c:	028b018e 	addeq	r0, fp, #-2147483613	; 0x80000023
 350:	0489038a 	streq	r0, [r9], #906	; 0x38a
 354:	06870588 	streq	r0, [r7], r8, lsl #11
 358:	08850786 	stmeq	r5, {r1, r2, r7, r8, r9, sl}
 35c:	00000984 	andeq	r0, r0, r4, lsl #19
 360:	00000018 	andeq	r0, r0, r8, lsl r0
 364:	00000324 	andeq	r0, r0, r4, lsr #6
 368:	33f810c8 	mvnscc	r1, #200	; 0xc8
 36c:	00000160 	andeq	r0, r0, r0, ror #2
 370:	44100e44 	ldrmi	r0, [r0], #-3652	; 0xe44
 374:	02860187 	addeq	r0, r6, #-1073741791	; 0xc0000021
 378:	04840385 	streq	r0, [r4], #901	; 0x385
 37c:	00000014 	andeq	r0, r0, r4, lsl r0
 380:	00000324 	andeq	r0, r0, r4, lsr #6
 384:	33f81228 	mvnscc	r1, #-2147483646	; 0x80000002
 388:	00000028 	andeq	r0, r0, r8, lsr #32
 38c:	46080e42 	strmi	r0, [r8], -r2, asr #28
 390:	0284018e 	addeq	r0, r4, #-2147483613	; 0x80000023
 394:	00000024 	andeq	r0, r0, r4, lsr #32
 398:	00000324 	andeq	r0, r0, r4, lsr #6
 39c:	33f81250 	mvnscc	r1, #5
 3a0:	000001c0 	andeq	r0, r0, r0, asr #3
 3a4:	44200e42 	strtmi	r0, [r0], #-3650	; 0xe42
 3a8:	8b44280e 	blhi	110a3e8 <TEXT_BASE-0x32e75c18>
 3ac:	89028a01 	stmdbhi	r2, {r0, r9, fp, pc}
 3b0:	87048803 	strhi	r8, [r4, -r3, lsl #16]
 3b4:	85068605 	strhi	r8, [r6, #-1541]	; 0x605
 3b8:	00088407 	andeq	r8, r8, r7, lsl #8
 3bc:	00000014 	andeq	r0, r0, r4, lsl r0
 3c0:	00000324 	andeq	r0, r0, r4, lsr #6
 3c4:	33f81410 	mvnscc	r1, #268435456	; 0x10000000
 3c8:	00000034 	andeq	r0, r0, r4, lsr r0
 3cc:	46080e42 	strmi	r0, [r8], -r2, asr #28
 3d0:	0284018e 	addeq	r0, r4, #-2147483613	; 0x80000023
 3d4:	00000028 	andeq	r0, r0, r8, lsr #32
 3d8:	00000324 	andeq	r0, r0, r4, lsr #6
 3dc:	33f81444 	mvnscc	r1, #1140850688	; 0x44000000
 3e0:	00000690 	muleq	r0, r0, r6
 3e4:	44240e42 	strtmi	r0, [r4], #-3650	; 0xe42
 3e8:	8e44400e 	cdphi	0, 4, cr4, cr4, cr14, {0}
 3ec:	8a028b01 	bhi	a2ff8 <TEXT_BASE-0x33edd008>
 3f0:	88048903 	stmdahi	r4, {r0, r1, r8, fp, pc}
 3f4:	86068705 	strhi	r8, [r6], -r5, lsl #14
 3f8:	84088507 	strhi	r8, [r8], #-1287	; 0x507
 3fc:	00000009 	andeq	r0, r0, r9
 400:	00000014 	andeq	r0, r0, r4, lsl r0
 404:	00000324 	andeq	r0, r0, r4, lsr #6
 408:	33f81ad4 	mvnscc	r1, #868352	; 0xd4000
 40c:	00000018 	andeq	r0, r0, r8, lsl r0
 410:	42080e42 	andmi	r0, r8, #1056	; 0x420
 414:	0284018e 	addeq	r0, r4, #-2147483613	; 0x80000023
 418:	0000001c 	andeq	r0, r0, ip, lsl r0
 41c:	00000324 	andeq	r0, r0, r4, lsr #6
 420:	33f81aec 	mvnscc	r1, #966656	; 0xec000
 424:	00000020 	andeq	r0, r0, r0, lsr #32
 428:	42080e42 	andmi	r0, r8, #1056	; 0x420
 42c:	8e42100e 	cdphi	0, 4, cr1, cr2, cr14, {0}
 430:	82048303 	andhi	r8, r4, #201326592	; 0xc000000
 434:	00000002 	andeq	r0, r0, r2
 438:	0000001c 	andeq	r0, r0, ip, lsl r0
 43c:	00000324 	andeq	r0, r0, r4, lsr #6
 440:	33f81b0c 	mvnscc	r1, #12288	; 0x3000
 444:	0000002c 	andeq	r0, r0, ip, lsr #32
 448:	42080e42 	andmi	r0, r8, #1056	; 0x420
 44c:	8e42100e 	cdphi	0, 4, cr1, cr2, cr14, {0}
 450:	83048403 	movwhi	r8, #17411	; 0x4403
 454:	00028201 	andeq	r8, r2, r1, lsl #4
 458:	0000000c 	andeq	r0, r0, ip
 45c:	00000324 	andeq	r0, r0, r4, lsr #6
 460:	33f81b38 	mvnscc	r1, #57344	; 0xe000
 464:	00000014 	andeq	r0, r0, r4, lsl r0
 468:	0000001c 	andeq	r0, r0, ip, lsl r0
 46c:	00000324 	andeq	r0, r0, r4, lsr #6
 470:	33f81b4c 	mvnscc	r1, #77824	; 0x13000
 474:	00000020 	andeq	r0, r0, r0, lsr #32
 478:	420c0e42 	andmi	r0, ip, #1056	; 0x420
 47c:	8e42100e 	cdphi	0, 4, cr1, cr2, cr14, {0}
 480:	82018304 	andhi	r8, r1, #268435456	; 0x10000000
 484:	00038102 	andeq	r8, r3, r2, lsl #2
 488:	00000028 	andeq	r0, r0, r8, lsr #32
 48c:	00000324 	andeq	r0, r0, r4, lsr #6
 490:	33f81b6c 	mvnscc	r1, #110592	; 0x1b000
 494:	0000070c 	andeq	r0, r0, ip, lsl #14
 498:	42240e42 	eormi	r0, r4, #1056	; 0x420
 49c:	028b018e 	addeq	r0, fp, #-2147483613	; 0x80000023
 4a0:	0489038a 	streq	r0, [r9], #906	; 0x38a
 4a4:	06870588 	streq	r0, [r7], r8, lsl #11
 4a8:	08850786 	stmeq	r5, {r1, r2, r7, r8, r9, sl}
 4ac:	0e480984 	cdpeq	9, 4, cr0, cr8, cr4, {4}
 4b0:	00000038 	andeq	r0, r0, r8, lsr r0
 4b4:	0000001c 	andeq	r0, r0, ip, lsl r0
 4b8:	00000324 	andeq	r0, r0, r4, lsr #6
 4bc:	33f82278 	mvnscc	r2, #-2147483641	; 0x80000007
 4c0:	00000020 	andeq	r0, r0, r0, lsr #32
 4c4:	420c0e42 	andmi	r0, ip, #1056	; 0x420
 4c8:	8e42100e 	cdphi	0, 4, cr1, cr2, cr14, {0}
 4cc:	82018304 	andhi	r8, r1, #268435456	; 0x10000000
 4d0:	00038102 	andeq	r8, r3, r2, lsl #2

Disassembly of section .debug_ranges:

00000000 <.debug_ranges>:
   0:	00000034 	andeq	r0, r0, r4, lsr r0
   4:	00000038 	andeq	r0, r0, r8, lsr r0
   8:	00000074 	andeq	r0, r0, r4, ror r0
   c:	0000007c 	andeq	r0, r0, ip, ror r0
  10:	0000003c 	andeq	r0, r0, ip, lsr r0
  14:	00000070 	andeq	r0, r0, r0, ror r0
	...
  20:	000000a0 	andeq	r0, r0, r0, lsr #1
  24:	000000a4 	andeq	r0, r0, r4, lsr #1
  28:	000000a8 	andeq	r0, r0, r8, lsr #1
  2c:	00000178 	andeq	r0, r0, r8, ror r1
	...
  38:	000000a0 	andeq	r0, r0, r0, lsr #1
  3c:	000000a4 	andeq	r0, r0, r4, lsr #1
  40:	000000a8 	andeq	r0, r0, r8, lsr #1
  44:	00000178 	andeq	r0, r0, r8, ror r1
	...
  50:	000000a0 	andeq	r0, r0, r0, lsr #1
  54:	000000a4 	andeq	r0, r0, r4, lsr #1
  58:	00000134 	andeq	r0, r0, r4, lsr r1
  5c:	00000178 	andeq	r0, r0, r8, ror r1
  60:	0000012c 	andeq	r0, r0, ip, lsr #2
  64:	00000130 	andeq	r0, r0, r0, lsr r1
  68:	00000120 	andeq	r0, r0, r0, lsr #2
  6c:	00000124 	andeq	r0, r0, r4, lsr #2
  70:	00000118 	andeq	r0, r0, r8, lsl r1
  74:	0000011c 	andeq	r0, r0, ip, lsl r1
  78:	000000a8 	andeq	r0, r0, r8, lsr #1
  7c:	00000114 	andeq	r0, r0, r4, lsl r1
	...
  88:	000000a0 	andeq	r0, r0, r0, lsr #1
  8c:	000000a4 	andeq	r0, r0, r4, lsr #1
  90:	00000134 	andeq	r0, r0, r4, lsr r1
  94:	00000178 	andeq	r0, r0, r8, ror r1
  98:	0000012c 	andeq	r0, r0, ip, lsr #2
  9c:	00000130 	andeq	r0, r0, r0, lsr r1
  a0:	00000120 	andeq	r0, r0, r0, lsr #2
  a4:	00000124 	andeq	r0, r0, r4, lsr #2
  a8:	00000118 	andeq	r0, r0, r8, lsl r1
  ac:	0000011c 	andeq	r0, r0, ip, lsl r1
  b0:	000000a8 	andeq	r0, r0, r8, lsr #1
  b4:	00000114 	andeq	r0, r0, r4, lsl r1
	...
  c0:	00000010 	andeq	r0, r0, r0, lsl r0
  c4:	00000014 	andeq	r0, r0, r4, lsl r0
  c8:	0000004c 	andeq	r0, r0, ip, asr #32
  cc:	00000050 	andeq	r0, r0, r0, asr r0
  d0:	0000003c 	andeq	r0, r0, ip, lsr r0
  d4:	00000048 	andeq	r0, r0, r8, asr #32
	...
  e0:	00000048 	andeq	r0, r0, r8, asr #32
  e4:	0000004c 	andeq	r0, r0, ip, asr #32
  e8:	00000050 	andeq	r0, r0, r0, asr r0
  ec:	0000005c 	andeq	r0, r0, ip, asr r0
	...
  f8:	0000026c 	andeq	r0, r0, ip, ror #4
  fc:	00000270 	andeq	r0, r0, r0, ror r2
 100:	000002a0 	andeq	r0, r0, r0, lsr #5
 104:	000002a4 	andeq	r0, r0, r4, lsr #5
 108:	00000274 	andeq	r0, r0, r4, ror r2
 10c:	00000298 	muleq	r0, r8, r2
	...
 118:	0000026c 	andeq	r0, r0, ip, ror #4
 11c:	00000270 	andeq	r0, r0, r0, ror r2
 120:	000002a0 	andeq	r0, r0, r0, lsr #5
 124:	000002a4 	andeq	r0, r0, r4, lsr #5
 128:	00000274 	andeq	r0, r0, r4, ror r2
 12c:	00000298 	muleq	r0, r8, r2
	...
 138:	000006a0 	andeq	r0, r0, r0, lsr #13
 13c:	000006a4 	andeq	r0, r0, r4, lsr #13
 140:	000006a8 	andeq	r0, r0, r8, lsr #13
 144:	000006c4 	andeq	r0, r0, r4, asr #13
	...
 150:	000006a0 	andeq	r0, r0, r0, lsr #13
 154:	000006a4 	andeq	r0, r0, r4, lsr #13
 158:	000006a8 	andeq	r0, r0, r8, lsr #13
 15c:	000006c4 	andeq	r0, r0, r4, asr #13
	...
 168:	000012b4 	undefined instruction 0x000012b4
 16c:	000012bc 	undefined instruction 0x000012bc
 170:	00001474 	andeq	r1, r0, r4, ror r4
 174:	00001484 	andeq	r1, r0, r4, lsl #9
 178:	000012f4 	strdeq	r1, [r0], -r4
 17c:	0000137c 	andeq	r1, r0, ip, ror r3
	...
