
timer_elf:     file format elf32-littlearm


Disassembly of section .text:

00000000 <_start>:
   0:	eb000002 	bl	10 <pre_lowlevel_init>
   4:	e3a0da01 	mov	sp, #4096	; 0x1000
   8:	eb000041 	bl	114 <main>

0000000c <halt_loop>:
   c:	eafffffe 	b	c <halt_loop>

00000010 <pre_lowlevel_init>:
  10:	e3a00453 	mov	r0, #1392508928	; 0x53000000
  14:	e3a01000 	mov	r1, #0
  18:	e5801000 	str	r1, [r0]
  1c:	e1a0f00e 	mov	pc, lr

00000020 <delay>:
  20:	e52db004 	push	{fp}		; (str fp, [sp, #-4]!)
  24:	e28db000 	add	fp, sp, #0
  28:	e24dd00c 	sub	sp, sp, #12
  2c:	e50b0008 	str	r0, [fp, #-8]
  30:	e3a03451 	mov	r3, #1358954496	; 0x51000000
  34:	e3a020bf 	mov	r2, #191	; 0xbf
  38:	e5832000 	str	r2, [r3]
  3c:	e59f3084 	ldr	r3, [pc, #132]	; c8 <delay+0xa8>
  40:	e3a02000 	mov	r2, #0
  44:	e5832000 	str	r2, [r3]
  48:	e59f307c 	ldr	r3, [pc, #124]	; cc <delay+0xac>
  4c:	e3a0201f 	mov	r2, #31
  50:	e5832000 	str	r2, [r3]
  54:	e59f3074 	ldr	r3, [pc, #116]	; d0 <delay+0xb0>
  58:	e3a02000 	mov	r2, #0
  5c:	e5832000 	str	r2, [r3]
  60:	e59f306c 	ldr	r3, [pc, #108]	; d4 <delay+0xb4>
  64:	e59f2068 	ldr	r2, [pc, #104]	; d4 <delay+0xb4>
  68:	e5922000 	ldr	r2, [r2]
  6c:	e3822002 	orr	r2, r2, #2
  70:	e5832000 	str	r2, [r3]
  74:	e59f3058 	ldr	r3, [pc, #88]	; d4 <delay+0xb4>
  78:	e3a02009 	mov	r2, #9
  7c:	e5832000 	str	r2, [r3]
  80:	ea000003 	b	94 <delay+0x74>
  84:	e59f304c 	ldr	r3, [pc, #76]	; d8 <delay+0xb8>
  88:	e5933000 	ldr	r3, [r3]
  8c:	e3530000 	cmp	r3, #0
  90:	1afffffb 	bne	84 <delay+0x64>
  94:	e51b3008 	ldr	r3, [fp, #-8]
  98:	e3530000 	cmp	r3, #0
  9c:	03a03000 	moveq	r3, #0
  a0:	13a03001 	movne	r3, #1
  a4:	e20330ff 	and	r3, r3, #255	; 0xff
  a8:	e51b2008 	ldr	r2, [fp, #-8]
  ac:	e2422001 	sub	r2, r2, #1
  b0:	e50b2008 	str	r2, [fp, #-8]
  b4:	e3530000 	cmp	r3, #0
  b8:	1afffff1 	bne	84 <delay+0x64>
  bc:	e28bd000 	add	sp, fp, #0
  c0:	e8bd0800 	pop	{fp}
  c4:	e12fff1e 	bx	lr
  c8:	51000004 	tstpl	r0, r4
  cc:	5100000c 	tstpl	r0, ip
  d0:	51000010 	tstpl	r0, r0, lsl r0
  d4:	51000008 	tstpl	r0, r8
  d8:	51000014 	tstpl	r0, r4, lsl r0

000000dc <wait>:
  dc:	e52db004 	push	{fp}		; (str fp, [sp, #-4]!)
  e0:	e28db000 	add	fp, sp, #0
  e4:	e24dd00c 	sub	sp, sp, #12
  e8:	e50b0008 	str	r0, [fp, #-8]
  ec:	ea000002 	b	fc <wait+0x20>
  f0:	e51b3008 	ldr	r3, [fp, #-8]
  f4:	e2433001 	sub	r3, r3, #1
  f8:	e50b3008 	str	r3, [fp, #-8]
  fc:	e51b3008 	ldr	r3, [fp, #-8]
 100:	e3530000 	cmp	r3, #0
 104:	1afffff9 	bne	f0 <wait+0x14>
 108:	e28bd000 	add	sp, fp, #0
 10c:	e8bd0800 	pop	{fp}
 110:	e12fff1e 	bx	lr

00000114 <main>:
 114:	e92d4800 	push	{fp, lr}
 118:	e28db004 	add	fp, sp, #4
 11c:	e24dd008 	sub	sp, sp, #8
 120:	e3a03000 	mov	r3, #0
 124:	e50b3008 	str	r3, [fp, #-8]
 128:	e59f304c 	ldr	r3, [pc, #76]	; 17c <main+0x68>
 12c:	e3a02b55 	mov	r2, #87040	; 0x15400
 130:	e5832000 	str	r2, [r3]
 134:	ea000000 	b	13c <main+0x28>
 138:	e1a00000 	nop			; (mov r0, r0)
 13c:	e3a00ffa 	mov	r0, #1000	; 0x3e8
 140:	ebffffb6 	bl	20 <delay>
 144:	e59f3034 	ldr	r3, [pc, #52]	; 180 <main+0x6c>
 148:	e51b2008 	ldr	r2, [fp, #-8]
 14c:	e1a02282 	lsl	r2, r2, #5
 150:	e1e02002 	mvn	r2, r2
 154:	e5832000 	str	r2, [r3]
 158:	e51b3008 	ldr	r3, [fp, #-8]
 15c:	e2833001 	add	r3, r3, #1
 160:	e50b3008 	str	r3, [fp, #-8]
 164:	e51b3008 	ldr	r3, [fp, #-8]
 168:	e3530010 	cmp	r3, #16
 16c:	1afffff1 	bne	138 <main+0x24>
 170:	e3a03000 	mov	r3, #0
 174:	e50b3008 	str	r3, [fp, #-8]
 178:	eaffffef 	b	13c <main+0x28>
 17c:	56000010 	undefined instruction 0x56000010
 180:	56000014 	undefined instruction 0x56000014
