
uart_elf:     file format elf32-littlearm


Disassembly of section .text:

00000000 <_start>:
   0:	e3a0da01 	mov	sp, #4096	; 0x1000
   4:	eb000003 	bl	18 <pre_lowlevel_init>
   8:	eb000006 	bl	28 <system_clock_init>
   c:	e59fe040 	ldr	lr, [pc, #64]	; 54 <system_clock_init+0x2c>
  10:	e59ff040 	ldr	pc, [pc, #64]	; 58 <system_clock_init+0x30>

00000014 <halt_loop>:
  14:	eafffffe 	b	14 <halt_loop>

00000018 <pre_lowlevel_init>:
  18:	e3a00453 	mov	r0, #1392508928	; 0x53000000
  1c:	e3a01000 	mov	r1, #0
  20:	e5801000 	str	r1, [r0]
  24:	e1a0f00e 	mov	pc, lr

00000028 <system_clock_init>:
  28:	e59f002c 	ldr	r0, [pc, #44]	; 5c <system_clock_init+0x34>
  2c:	e3a01005 	mov	r1, #5
  30:	e5801000 	str	r1, [r0]
  34:	ee111f10 	mrc	15, 0, r1, cr1, cr0, {0}
  38:	e3811103 	orr	r1, r1, #-1073741824	; 0xc0000000
  3c:	ee011f10 	mcr	15, 0, r1, cr1, cr0, {0}
  40:	e3a01313 	mov	r1, #1275068416	; 0x4c000000
  44:	e3a02a7f 	mov	r2, #520192	; 0x7f000
  48:	e2822021 	add	r2, r2, #33	; 0x21
  4c:	e5812004 	str	r2, [r1, #4]
  50:	e1a0f00e 	mov	pc, lr
  54:	00000014 	andeq	r0, r0, r4, lsl r0
  58:	000000d8 	ldrdeq	r0, [r0], -r8
  5c:	4c000014 	stcmi	0, cr0, [r0], {20}

00000060 <putchar>:
  60:	e350000a 	cmp	r0, #10
  64:	e92d4010 	push	{r4, lr}
  68:	e1a04000 	mov	r4, r0
  6c:	0a00000a 	beq	9c <putchar+0x3c>
  70:	e3500008 	cmp	r0, #8
  74:	0a000004 	beq	8c <putchar+0x2c>
  78:	e20400ff 	and	r0, r4, #255	; 0xff
  7c:	eb00003c 	bl	174 <putc>
  80:	e1a00004 	mov	r0, r4
  84:	e8bd4010 	pop	{r4, lr}
  88:	e12fff1e 	bx	lr
  8c:	eb000038 	bl	174 <putc>
  90:	e3a00020 	mov	r0, #32
  94:	eb000036 	bl	174 <putc>
  98:	eafffff6 	b	78 <putchar+0x18>
  9c:	e3a0000d 	mov	r0, #13
  a0:	eb000033 	bl	174 <putc>
  a4:	eafffff3 	b	78 <putchar+0x18>

000000a8 <puts>:
  a8:	e92d4010 	push	{r4, lr}
  ac:	e1a04000 	mov	r4, r0
  b0:	e5d00000 	ldrb	r0, [r0]
  b4:	e3500000 	cmp	r0, #0
  b8:	0a000003 	beq	cc <puts+0x24>
  bc:	ebffffe7 	bl	60 <putchar>
  c0:	e5f40001 	ldrb	r0, [r4, #1]!
  c4:	e3500000 	cmp	r0, #0
  c8:	1afffffb 	bne	bc <puts+0x14>
  cc:	e3a00000 	mov	r0, #0
  d0:	e8bd4010 	pop	{r4, lr}
  d4:	e12fff1e 	bx	lr

000000d8 <main>:
  d8:	e92d4030 	push	{r4, r5, lr}
  dc:	e59f3044 	ldr	r3, [pc, #68]	; 128 <main+0x50>
  e0:	e24dd014 	sub	sp, sp, #20
  e4:	e28d4004 	add	r4, sp, #4
  e8:	e8930007 	ldm	r3, {r0, r1, r2}
  ec:	e8840007 	stm	r4, {r0, r1, r2}
  f0:	eb00000e 	bl	130 <uart_init>
  f4:	e3a0004b 	mov	r0, #75	; 0x4b
  f8:	eb00001d 	bl	174 <putc>
  fc:	e3a05000 	mov	r5, #0
 100:	e7d40005 	ldrb	r0, [r4, r5]
 104:	e2855001 	add	r5, r5, #1
 108:	eb000019 	bl	174 <putc>
 10c:	e355000c 	cmp	r5, #12
 110:	1afffffa 	bne	100 <main+0x28>
 114:	e59f0010 	ldr	r0, [pc, #16]	; 12c <main+0x54>
 118:	ebffffe2 	bl	a8 <puts>
 11c:	eb00001b 	bl	190 <getc>
 120:	eb000013 	bl	174 <putc>
 124:	eafffffc 	b	11c <main+0x44>
 128:	000001b4 	undefined instruction 0x000001b4
 12c:	000001ac 	andeq	r0, r0, ip, lsr #3

00000130 <uart_init>:
 130:	e3a02456 	mov	r2, #1442840576	; 0x56000000
 134:	e5920070 	ldr	r0, [r2, #112]	; 0x70
 138:	e3a03205 	mov	r3, #1342177280	; 0x50000000
 13c:	e38000a0 	orr	r0, r0, #160	; 0xa0
 140:	e5820070 	str	r0, [r2, #112]	; 0x70
 144:	e3a0000c 	mov	r0, #12
 148:	e5820078 	str	r0, [r2, #120]	; 0x78
 14c:	e3a02003 	mov	r2, #3
 150:	e5832000 	str	r2, [r3]
 154:	e3a02005 	mov	r2, #5
 158:	e5832004 	str	r2, [r3, #4]
 15c:	e3a01000 	mov	r1, #0
 160:	e3a0201a 	mov	r2, #26
 164:	e5831008 	str	r1, [r3, #8]
 168:	e583100c 	str	r1, [r3, #12]
 16c:	e5832028 	str	r2, [r3, #40]	; 0x28
 170:	e12fff1e 	bx	lr

00000174 <putc>:
 174:	e3a02205 	mov	r2, #1342177280	; 0x50000000
 178:	e5923010 	ldr	r3, [r2, #16]
 17c:	e3130004 	tst	r3, #4
 180:	0afffffc 	beq	178 <putc+0x4>
 184:	e3a03205 	mov	r3, #1342177280	; 0x50000000
 188:	e5c30020 	strb	r0, [r3, #32]
 18c:	e12fff1e 	bx	lr

00000190 <getc>:
 190:	e3a02205 	mov	r2, #1342177280	; 0x50000000
 194:	e5923010 	ldr	r3, [r2, #16]
 198:	e3130001 	tst	r3, #1
 19c:	0afffffc 	beq	194 <getc+0x4>
 1a0:	e3a03205 	mov	r3, #1342177280	; 0x50000000
 1a4:	e5d30024 	ldrb	r0, [r3, #36]	; 0x24
 1a8:	e12fff1e 	bx	lr
